ccollections
defaultdict
p0
(c__builtin__
list
p1
tp2
Rp3
I216
(lp4
I0
aI630
asI217
(lp5
I1
aI631
asI218
(lp6
I2
aI632
asI219
(lp7
I3
aI633
asI220
(lp8
I4
aI634
asI221
(lp9
I5
aI635
asI222
(lp10
I6
aI636
asI223
(lp11
I7
aI637
asI224
(lp12
I8
aI638
asI225
(lp13
I9
aI639
asI226
(lp14
I10
aI640
asI227
(lp15
I11
aI641
asI228
(lp16
I12
aI642
asI229
(lp17
I13
aI643
asI230
(lp18
I14
aI644
asI231
(lp19
I15
aI645
asI232
(lp20
I16
aI646
asI233
(lp21
I17
aI647
asI234
(lp22
I18
aI648
asI235
(lp23
I19
aI649
asI236
(lp24
I20
aI650
asI237
(lp25
I21
aI651
asI238
(lp26
I22
aI652
asI239
(lp27
I23
aI653
asI240
(lp28
I24
aI654
asI241
(lp29
I25
aI655
asI242
(lp30
I26
aI656
asI243
(lp31
I27
aI657
asI244
(lp32
I28
aI658
asI245
(lp33
I29
aI659
asI246
(lp34
I30
aI660
asI247
(lp35
I31
aI661
asI248
(lp36
I32
aI662
asI249
(lp37
I33
aI663
asI250
(lp38
I34
aI664
asI251
(lp39
I35
aI665
asI252
(lp40
I36
aI666
asI253
(lp41
I37
aI667
asI254
(lp42
I38
aI668
asI255
(lp43
I39
aI669
asI256
(lp44
I40
aI670
asI257
(lp45
I41
aI671
asI258
(lp46
I42
aI672
asI259
(lp47
I43
aI673
asI260
(lp48
I44
aI674
asI261
(lp49
I45
aI675
asI262
(lp50
I46
aI676
asI263
(lp51
I47
aI677
asI264
(lp52
I48
aI678
asI265
(lp53
I49
aI679
asI266
(lp54
I50
aI680
asI267
(lp55
I51
aI681
asI268
(lp56
I52
aI682
asI269
(lp57
I53
aI683
asI270
(lp58
I54
aI684
asI271
(lp59
I55
aI685
asI272
(lp60
I56
aI686
asI273
(lp61
I57
aI687
asI274
(lp62
I58
aI688
asI275
(lp63
I59
aI689
asI276
(lp64
I60
aI690
asI277
(lp65
I61
aI691
asI278
(lp66
I62
aI692
asI279
(lp67
I63
aI693
asI280
(lp68
I64
aI694
asI281
(lp69
I65
aI695
asI282
(lp70
I66
aI696
asI283
(lp71
I67
aI697
asI284
(lp72
I68
aI698
asI285
(lp73
I69
aI699
asI286
(lp74
I70
aI700
asI287
(lp75
I71
aI701
asI288
(lp76
I72
aI702
asI289
(lp77
I73
aI703
asI290
(lp78
I74
aI704
asI291
(lp79
I75
aI705
asI292
(lp80
I76
aI706
asI293
(lp81
I77
aI707
asI294
(lp82
I78
aI708
asI295
(lp83
I79
aI709
asI296
(lp84
I80
aI710
asI297
(lp85
I82
aI711
asI298
(lp86
I83
aI712
asI299
(lp87
I85
aI714
asI300
(lp88
I86
aI715
asI301
(lp89
I88
aI717
asI302
(lp90
I89
aI718
asI303
(lp91
I91
aI720
asI304
(lp92
I92
aI721
asI305
(lp93
I94
aI723
asI306
(lp94
I95
aI724
asI307
(lp95
I97
aI726
asI308
(lp96
I98
aI727
asI309
(lp97
I100
aI729
asI310
(lp98
I101
aI730
asI311
(lp99
I103
aI732
asI312
(lp100
I104
aI733
asI313
(lp101
I106
aI735
asI314
(lp102
I107
aI736
asI315
(lp103
I108
aI685
asI316
(lp104
I109
aI686
asI317
(lp105
I111
aI688
asI318
(lp106
I112
aI689
asI319
(lp107
I114
aI691
asI320
(lp108
I115
aI692
asI321
(lp109
I117
aI694
asI322
(lp110
I118
aI695
asI323
(lp111
I120
aI697
asI324
(lp112
I121
aI698
asI325
(lp113
I123
aI700
asI326
(lp114
I124
aI701
asI327
(lp115
I126
aI703
asI328
(lp116
I127
aI704
asI329
(lp117
I129
aI706
asI330
(lp118
I130
aI707
asI331
(lp119
I132
aI709
asI332
(lp120
I133
aI710
asI333
(lp121
I135
aI711
asI334
(lp122
I136
aI712
asI335
(lp123
I137
aI713
asI336
(lp124
I138
aI714
asI337
(lp125
I139
aI715
asI338
(lp126
I140
aI716
asI339
(lp127
I141
aI717
asI340
(lp128
I142
aI718
asI341
(lp129
I143
aI719
asI342
(lp130
I144
aI720
asI343
(lp131
I145
aI721
asI344
(lp132
I146
aI722
asI345
(lp133
I147
aI723
asI346
(lp134
I148
aI724
asI347
(lp135
I149
aI725
asI348
(lp136
I150
aI726
asI349
(lp137
I151
aI727
asI350
(lp138
I152
aI728
asI351
(lp139
I153
aI729
asI352
(lp140
I154
aI730
asI353
(lp141
I155
aI731
asI354
(lp142
I156
aI732
asI355
(lp143
I157
aI733
asI356
(lp144
I158
aI734
asI357
(lp145
I159
aI735
asI358
(lp146
I160
aI736
asI359
(lp147
I161
aI737
asI360
(lp148
I162
aI631
asI361
(lp149
I163
aI632
asI362
(lp150
I164
aI630
asI363
(lp151
I165
aI634
asI364
(lp152
I166
aI635
asI365
(lp153
I167
aI633
asI366
(lp154
I168
aI637
asI367
(lp155
I169
aI638
asI368
(lp156
I170
aI636
asI369
(lp157
I171
aI640
asI370
(lp158
I172
aI641
asI371
(lp159
I173
aI639
asI372
(lp160
I174
aI643
asI373
(lp161
I175
aI644
asI374
(lp162
I176
aI642
asI375
(lp163
I177
aI646
asI376
(lp164
I178
aI647
asI377
(lp165
I179
aI645
asI378
(lp166
I180
aI649
asI379
(lp167
I181
aI650
asI380
(lp168
I182
aI648
asI381
(lp169
I183
aI652
asI382
(lp170
I184
aI653
asI383
(lp171
I185
aI651
asI384
(lp172
I186
aI655
asI385
(lp173
I187
aI656
asI386
(lp174
I188
aI654
asI387
(lp175
I189
aI657
asI388
(lp176
I190
aI658
asI389
(lp177
I191
aI659
asI390
(lp178
I192
aI660
asI391
(lp179
I193
aI661
asI392
(lp180
I194
aI662
asI393
(lp181
I195
aI663
asI394
(lp182
I196
aI664
asI395
(lp183
I197
aI665
asI396
(lp184
I198
aI666
asI397
(lp185
I199
aI667
asI398
(lp186
I200
aI668
asI399
(lp187
I201
aI669
asI400
(lp188
I202
aI670
asI401
(lp189
I203
aI671
asI402
(lp190
I204
aI672
asI403
(lp191
I205
aI673
asI404
(lp192
I206
aI674
asI405
(lp193
I207
aI675
asI406
(lp194
I208
aI676
asI407
(lp195
I209
aI677
asI408
(lp196
I210
aI678
asI409
(lp197
I211
aI679
asI410
(lp198
I212
aI680
asI411
(lp199
I213
aI681
asI412
(lp200
I214
aI682
asI413
(lp201
I215
aI683
asI414
(lp202
I0
aI54
asI415
(lp203
I1
aI55
asI416
(lp204
I2
aI56
asI417
(lp205
I3
aI57
asI418
(lp206
I4
aI58
asI419
(lp207
I5
aI59
asI420
(lp208
I6
aI60
asI421
(lp209
I7
aI61
asI422
(lp210
I8
aI62
asI423
(lp211
I9
aI63
asI424
(lp212
I10
aI64
asI425
(lp213
I11
aI65
asI426
(lp214
I12
aI66
asI427
(lp215
I13
aI67
asI428
(lp216
I14
aI68
asI429
(lp217
I15
aI69
asI430
(lp218
I16
aI70
asI431
(lp219
I17
aI71
asI432
(lp220
I18
aI72
asI433
(lp221
I19
aI73
asI434
(lp222
I20
aI74
asI435
(lp223
I21
aI75
asI436
(lp224
I22
aI76
asI437
(lp225
I23
aI77
asI438
(lp226
I24
aI78
asI439
(lp227
I25
aI79
asI440
(lp228
I26
aI80
asI441
(lp229
I27
aI82
asI442
(lp230
I28
aI83
asI443
(lp231
I29
aI81
asI444
(lp232
I30
aI85
asI445
(lp233
I31
aI86
asI446
(lp234
I32
aI84
asI447
(lp235
I33
aI88
asI448
(lp236
I34
aI89
asI449
(lp237
I35
aI87
asI450
(lp238
I36
aI91
asI451
(lp239
I37
aI92
asI452
(lp240
I38
aI90
asI453
(lp241
I39
aI94
asI454
(lp242
I40
aI95
asI455
(lp243
I41
aI93
asI456
(lp244
I42
aI97
asI457
(lp245
I43
aI98
asI458
(lp246
I44
aI96
asI459
(lp247
I45
aI100
asI460
(lp248
I46
aI101
asI461
(lp249
I47
aI99
asI462
(lp250
I48
aI103
asI463
(lp251
I49
aI104
asI464
(lp252
I50
aI102
asI465
(lp253
I51
aI106
asI466
(lp254
I52
aI107
asI467
(lp255
I53
aI105
asI468
(lp256
I45
aI54
asI469
(lp257
I46
aI55
asI470
(lp258
I47
aI56
asI471
(lp259
I48
aI57
asI472
(lp260
I49
aI58
asI473
(lp261
I50
aI59
asI474
(lp262
I51
aI60
asI475
(lp263
I52
aI61
asI476
(lp264
I53
aI62
asI477
(lp265
I27
aI63
asI478
(lp266
I28
aI64
asI479
(lp267
I29
aI65
asI480
(lp268
I30
aI66
asI481
(lp269
I31
aI67
asI482
(lp270
I32
aI68
asI483
(lp271
I33
aI69
asI484
(lp272
I34
aI70
asI485
(lp273
I35
aI71
asI486
(lp274
I36
aI72
asI487
(lp275
I37
aI73
asI488
(lp276
I38
aI74
asI489
(lp277
I39
aI75
asI490
(lp278
I40
aI76
asI491
(lp279
I41
aI77
asI492
(lp280
I42
aI78
asI493
(lp281
I43
aI79
asI494
(lp282
I44
aI80
asI495
(lp283
I9
aI81
asI496
(lp284
I10
aI82
asI497
(lp285
I11
aI83
asI498
(lp286
I12
aI84
asI499
(lp287
I13
aI85
asI500
(lp288
I14
aI86
asI501
(lp289
I15
aI87
asI502
(lp290
I16
aI88
asI503
(lp291
I17
aI89
asI504
(lp292
I18
aI90
asI505
(lp293
I19
aI91
asI506
(lp294
I20
aI92
asI507
(lp295
I21
aI93
asI508
(lp296
I22
aI94
asI509
(lp297
I23
aI95
asI510
(lp298
I24
aI96
asI511
(lp299
I25
aI97
asI512
(lp300
I26
aI98
asI513
(lp301
I0
aI99
asI514
(lp302
I1
aI100
asI515
(lp303
I2
aI101
asI516
(lp304
I3
aI102
asI517
(lp305
I4
aI103
asI518
(lp306
I5
aI104
asI519
(lp307
I6
aI105
asI520
(lp308
I7
aI106
asI521
(lp309
I8
aI107
asI522
(lp310
I108
aI165
asI523
(lp311
I109
aI166
asI524
(lp312
I110
aI167
asI525
(lp313
I111
aI168
asI526
(lp314
I112
aI169
asI527
(lp315
I113
aI170
asI528
(lp316
I114
aI162
asI529
(lp317
I115
aI163
asI530
(lp318
I116
aI164
asI531
(lp319
I117
aI174
asI532
(lp320
I118
aI175
asI533
(lp321
I119
aI176
asI534
(lp322
I120
aI177
asI535
(lp323
I121
aI178
asI536
(lp324
I122
aI179
asI537
(lp325
I123
aI171
asI538
(lp326
I124
aI172
asI539
(lp327
I125
aI173
asI540
(lp328
I126
aI183
asI541
(lp329
I127
aI184
asI542
(lp330
I128
aI185
asI543
(lp331
I129
aI186
asI544
(lp332
I130
aI187
asI545
(lp333
I131
aI188
asI546
(lp334
I132
aI180
asI547
(lp335
I133
aI181
asI548
(lp336
I134
aI182
asI549
(lp337
I135
aI195
asI550
(lp338
I136
aI196
asI551
(lp339
I137
aI197
asI552
(lp340
I138
aI189
asI553
(lp341
I139
aI190
asI554
(lp342
I140
aI191
asI555
(lp343
I141
aI192
asI556
(lp344
I142
aI193
asI557
(lp345
I143
aI194
asI558
(lp346
I144
aI204
asI559
(lp347
I145
aI205
asI560
(lp348
I146
aI206
asI561
(lp349
I147
aI198
asI562
(lp350
I148
aI199
asI563
(lp351
I149
aI200
asI564
(lp352
I150
aI201
asI565
(lp353
I151
aI202
asI566
(lp354
I152
aI203
asI567
(lp355
I153
aI213
asI568
(lp356
I154
aI214
asI569
(lp357
I155
aI215
asI570
(lp358
I156
aI207
asI571
(lp359
I157
aI208
asI572
(lp360
I158
aI209
asI573
(lp361
I159
aI210
asI574
(lp362
I160
aI211
asI575
(lp363
I161
aI212
asI576
(lp364
I135
aI162
asI577
(lp365
I136
aI163
asI578
(lp366
I137
aI164
asI579
(lp367
I138
aI165
asI580
(lp368
I139
aI166
asI581
(lp369
I140
aI167
asI582
(lp370
I141
aI168
asI583
(lp371
I142
aI169
asI584
(lp372
I143
aI170
asI585
(lp373
I144
aI171
asI586
(lp374
I145
aI172
asI587
(lp375
I146
aI173
asI588
(lp376
I147
aI174
asI589
(lp377
I148
aI175
asI590
(lp378
I149
aI176
asI591
(lp379
I150
aI177
asI592
(lp380
I151
aI178
asI593
(lp381
I152
aI179
asI594
(lp382
I153
aI180
asI595
(lp383
I154
aI181
asI596
(lp384
I155
aI182
asI597
(lp385
I156
aI183
asI598
(lp386
I157
aI184
asI599
(lp387
I158
aI185
asI600
(lp388
I159
aI186
asI601
(lp389
I160
aI187
asI602
(lp390
I161
aI188
asI603
(lp391
I110
aI189
asI604
(lp392
I108
aI190
asI605
(lp393
I109
aI191
asI606
(lp394
I113
aI192
asI607
(lp395
I111
aI193
asI608
(lp396
I112
aI194
asI609
(lp397
I116
aI195
asI610
(lp398
I114
aI196
asI611
(lp399
I115
aI197
asI612
(lp400
I119
aI198
asI613
(lp401
I117
aI199
asI614
(lp402
I118
aI200
asI615
(lp403
I122
aI201
asI616
(lp404
I120
aI202
asI617
(lp405
I121
aI203
asI618
(lp406
I125
aI204
asI619
(lp407
I123
aI205
asI620
(lp408
I124
aI206
asI621
(lp409
I128
aI207
asI622
(lp410
I126
aI208
asI623
(lp411
I127
aI209
asI624
(lp412
I131
aI210
asI625
(lp413
I129
aI211
asI626
(lp414
I130
aI212
asI627
(lp415
I134
aI213
asI628
(lp416
I132
aI214
asI629
(lp417
I133
aI215
asI738
(lp418
I9
aI81
asI739
(lp419
I10
aI82
asI740
(lp420
I11
aI83
asI741
(lp421
I12
aI84
asI742
(lp422
I13
aI85
asI743
(lp423
I14
aI86
asI744
(lp424
I15
aI87
asI745
(lp425
I16
aI88
asI746
(lp426
I17
aI89
asI747
(lp427
I18
aI90
asI748
(lp428
I19
aI91
asI749
(lp429
I20
aI92
asI750
(lp430
I21
aI93
asI751
(lp431
I22
aI94
asI752
(lp432
I23
aI95
asI753
(lp433
I24
aI96
asI754
(lp434
I25
aI97
asI755
(lp435
I26
aI98
asI756
(lp436
I27
aI63
asI757
(lp437
I28
aI64
asI758
(lp438
I29
aI65
asI759
(lp439
I30
aI66
asI760
(lp440
I31
aI67
asI761
(lp441
I32
aI68
asI762
(lp442
I33
aI69
asI763
(lp443
I34
aI70
asI764
(lp444
I35
aI71
asI765
(lp445
I36
aI72
asI766
(lp446
I37
aI73
asI767
(lp447
I38
aI74
asI768
(lp448
I39
aI75
asI769
(lp449
I40
aI76
asI770
(lp450
I41
aI77
asI771
(lp451
I42
aI78
asI772
(lp452
I43
aI79
asI773
(lp453
I44
aI80
asI774
(lp454
I0
aI54
asI775
(lp455
I1
aI55
asI776
(lp456
I2
aI56
asI777
(lp457
I3
aI57
asI778
(lp458
I4
aI58
asI779
(lp459
I5
aI59
asI780
(lp460
I6
aI60
asI781
(lp461
I7
aI61
asI782
(lp462
I8
aI62
asI783
(lp463
I9
aI63
asI784
(lp464
I10
aI64
asI785
(lp465
I11
aI65
asI786
(lp466
I12
aI66
asI787
(lp467
I13
aI67
asI788
(lp468
I14
aI68
asI789
(lp469
I15
aI69
asI790
(lp470
I16
aI70
asI791
(lp471
I17
aI71
asI792
(lp472
I18
aI72
asI793
(lp473
I19
aI73
asI794
(lp474
I20
aI74
asI795
(lp475
I21
aI75
asI796
(lp476
I22
aI76
asI797
(lp477
I23
aI77
asI798
(lp478
I24
aI78
asI799
(lp479
I25
aI79
asI800
(lp480
I26
aI80
asI801
(lp481
I27
aI82
asI802
(lp482
I28
aI83
asI803
(lp483
I30
aI85
asI804
(lp484
I31
aI86
asI805
(lp485
I33
aI88
asI806
(lp486
I34
aI89
asI807
(lp487
I36
aI91
asI808
(lp488
I37
aI92
asI809
(lp489
I39
aI94
asI810
(lp490
I40
aI95
asI811
(lp491
I42
aI97
asI812
(lp492
I43
aI98
asI813
(lp493
I45
aI100
asI814
(lp494
I46
aI101
asI815
(lp495
I48
aI103
asI816
(lp496
I49
aI104
asI817
(lp497
I51
aI106
asI818
(lp498
I52
aI107
asI819
(lp499
I108
aI190
asI820
(lp500
I109
aI191
asI821
(lp501
I111
aI193
asI822
(lp502
I112
aI194
asI823
(lp503
I114
aI196
asI824
(lp504
I115
aI197
asI825
(lp505
I117
aI199
asI826
(lp506
I118
aI200
asI827
(lp507
I120
aI202
asI828
(lp508
I121
aI203
asI829
(lp509
I123
aI205
asI830
(lp510
I124
aI206
asI831
(lp511
I126
aI208
asI832
(lp512
I127
aI209
asI833
(lp513
I129
aI211
asI834
(lp514
I130
aI212
asI835
(lp515
I132
aI214
asI836
(lp516
I133
aI215
asI837
(lp517
I135
aI162
asI838
(lp518
I136
aI163
asI839
(lp519
I137
aI164
asI840
(lp520
I138
aI165
asI841
(lp521
I139
aI166
asI842
(lp522
I140
aI167
asI843
(lp523
I141
aI168
asI844
(lp524
I142
aI169
asI845
(lp525
I143
aI170
asI846
(lp526
I144
aI171
asI847
(lp527
I145
aI172
asI848
(lp528
I146
aI173
asI849
(lp529
I147
aI174
asI850
(lp530
I148
aI175
asI851
(lp531
I149
aI176
asI852
(lp532
I150
aI177
asI853
(lp533
I151
aI178
asI854
(lp534
I152
aI179
asI855
(lp535
I153
aI180
asI856
(lp536
I154
aI181
asI857
(lp537
I155
aI182
asI858
(lp538
I156
aI183
asI859
(lp539
I157
aI184
asI860
(lp540
I158
aI185
asI861
(lp541
I159
aI186
asI862
(lp542
I160
aI187
asI863
(lp543
I161
aI188
asI864
(lp544
I108
aI165
asI865
(lp545
I109
aI166
asI866
(lp546
I110
aI167
asI867
(lp547
I111
aI168
asI868
(lp548
I112
aI169
asI869
(lp549
I113
aI170
asI870
(lp550
I117
aI174
asI871
(lp551
I118
aI175
asI872
(lp552
I119
aI176
asI873
(lp553
I120
aI177
asI874
(lp554
I121
aI178
asI875
(lp555
I122
aI179
asI876
(lp556
I126
aI183
asI877
(lp557
I127
aI184
asI878
(lp558
I128
aI185
asI879
(lp559
I129
aI186
asI880
(lp560
I130
aI187
asI881
(lp561
I131
aI188
asI882
(lp562
I138
aI189
asI883
(lp563
I139
aI190
asI884
(lp564
I140
aI191
asI885
(lp565
I141
aI192
asI886
(lp566
I142
aI193
asI887
(lp567
I143
aI194
asI888
(lp568
I147
aI198
asI889
(lp569
I148
aI199
asI890
(lp570
I149
aI200
asI891
(lp571
I150
aI201
asI892
(lp572
I151
aI202
asI893
(lp573
I152
aI203
asI894
(lp574
I156
aI207
asI895
(lp575
I157
aI208
asI896
(lp576
I158
aI209
asI897
(lp577
I159
aI210
asI898
(lp578
I160
aI211
asI899
(lp579
I161
aI212
asI900
(lp580
I0
aI690
asI901
(lp581
I1
aI691
asI902
(lp582
I2
aI692
asI903
(lp583
I3
aI684
asI904
(lp584
I4
aI685
asI905
(lp585
I5
aI686
asI906
(lp586
I6
aI687
asI907
(lp587
I7
aI688
asI908
(lp588
I8
aI689
asI909
(lp589
I9
aI699
asI910
(lp590
I10
aI700
asI911
(lp591
I11
aI701
asI912
(lp592
I12
aI693
asI913
(lp593
I13
aI694
asI914
(lp594
I14
aI695
asI915
(lp595
I15
aI696
asI916
(lp596
I16
aI697
asI917
(lp597
I17
aI698
asI918
(lp598
I18
aI708
asI919
(lp599
I19
aI709
asI920
(lp600
I20
aI710
asI921
(lp601
I21
aI702
asI922
(lp602
I22
aI703
asI923
(lp603
I23
aI704
asI924
(lp604
I24
aI705
asI925
(lp605
I25
aI706
asI926
(lp606
I26
aI707
asI927
(lp607
I27
aI714
asI928
(lp608
I28
aI715
asI929
(lp609
I29
aI716
asI930
(lp610
I30
aI717
asI931
(lp611
I31
aI718
asI932
(lp612
I32
aI719
asI933
(lp613
I33
aI711
asI934
(lp614
I34
aI712
asI935
(lp615
I35
aI713
asI936
(lp616
I36
aI723
asI937
(lp617
I37
aI724
asI938
(lp618
I38
aI725
asI939
(lp619
I39
aI726
asI940
(lp620
I40
aI727
asI941
(lp621
I41
aI728
asI942
(lp622
I42
aI720
asI943
(lp623
I43
aI721
asI944
(lp624
I44
aI722
asI945
(lp625
I45
aI732
asI946
(lp626
I46
aI733
asI947
(lp627
I47
aI734
asI948
(lp628
I48
aI735
asI949
(lp629
I49
aI736
asI950
(lp630
I50
aI737
asI951
(lp631
I51
aI729
asI952
(lp632
I52
aI730
asI953
(lp633
I53
aI731
asI954
(lp634
I54
aI657
asI955
(lp635
I55
aI658
asI956
(lp636
I56
aI659
asI957
(lp637
I57
aI660
asI958
(lp638
I58
aI661
asI959
(lp639
I59
aI662
asI960
(lp640
I60
aI663
asI961
(lp641
I61
aI664
asI962
(lp642
I62
aI665
asI963
(lp643
I63
aI666
asI964
(lp644
I64
aI667
asI965
(lp645
I65
aI668
asI966
(lp646
I66
aI669
asI967
(lp647
I67
aI670
asI968
(lp648
I68
aI671
asI969
(lp649
I69
aI672
asI970
(lp650
I70
aI673
asI971
(lp651
I71
aI674
asI972
(lp652
I72
aI675
asI973
(lp653
I73
aI676
asI974
(lp654
I74
aI677
asI975
(lp655
I75
aI678
asI976
(lp656
I76
aI679
asI977
(lp657
I77
aI680
asI978
(lp658
I78
aI681
asI979
(lp659
I79
aI682
asI980
(lp660
I80
aI683
asI981
(lp661
I81
aI630
asI982
(lp662
I82
aI631
asI983
(lp663
I83
aI632
asI984
(lp664
I84
aI633
asI985
(lp665
I85
aI634
asI986
(lp666
I86
aI635
asI987
(lp667
I87
aI636
asI988
(lp668
I88
aI637
asI989
(lp669
I89
aI638
asI990
(lp670
I90
aI639
asI991
(lp671
I91
aI640
asI992
(lp672
I92
aI641
asI993
(lp673
I93
aI642
asI994
(lp674
I94
aI643
asI995
(lp675
I95
aI644
asI996
(lp676
I96
aI645
asI997
(lp677
I97
aI646
asI998
(lp678
I98
aI647
asI999
(lp679
I99
aI648
asI1000
(lp680
I100
aI649
asI1001
(lp681
I101
aI650
asI1002
(lp682
I102
aI651
asI1003
(lp683
I103
aI652
asI1004
(lp684
I104
aI653
asI1005
(lp685
I105
aI654
asI1006
(lp686
I106
aI655
asI1007
(lp687
I107
aI656
asI1008
(lp688
I108
aI631
asI1009
(lp689
I109
aI632
asI1010
(lp690
I110
aI630
asI1011
(lp691
I111
aI634
asI1012
(lp692
I112
aI635
asI1013
(lp693
I113
aI633
asI1014
(lp694
I114
aI637
asI1015
(lp695
I115
aI638
asI1016
(lp696
I116
aI636
asI1017
(lp697
I117
aI640
asI1018
(lp698
I118
aI641
asI1019
(lp699
I119
aI639
asI1020
(lp700
I120
aI643
asI1021
(lp701
I121
aI644
asI1022
(lp702
I122
aI642
asI1023
(lp703
I123
aI646
asI1024
(lp704
I124
aI647
asI1025
(lp705
I125
aI645
asI1026
(lp706
I126
aI649
asI1027
(lp707
I127
aI650
asI1028
(lp708
I128
aI648
asI1029
(lp709
I129
aI652
asI1030
(lp710
I130
aI653
asI1031
(lp711
I131
aI651
asI1032
(lp712
I132
aI655
asI1033
(lp713
I133
aI656
asI1034
(lp714
I134
aI654
asI1035
(lp715
I135
aI657
asI1036
(lp716
I136
aI658
asI1037
(lp717
I137
aI659
asI1038
(lp718
I138
aI660
asI1039
(lp719
I139
aI661
asI1040
(lp720
I140
aI662
asI1041
(lp721
I141
aI663
asI1042
(lp722
I142
aI664
asI1043
(lp723
I143
aI665
asI1044
(lp724
I144
aI666
asI1045
(lp725
I145
aI667
asI1046
(lp726
I146
aI668
asI1047
(lp727
I147
aI669
asI1048
(lp728
I148
aI670
asI1049
(lp729
I149
aI671
asI1050
(lp730
I150
aI672
asI1051
(lp731
I151
aI673
asI1052
(lp732
I152
aI674
asI1053
(lp733
I153
aI675
asI1054
(lp734
I154
aI676
asI1055
(lp735
I155
aI677
asI1056
(lp736
I156
aI678
asI1057
(lp737
I157
aI679
asI1058
(lp738
I158
aI680
asI1059
(lp739
I159
aI681
asI1060
(lp740
I160
aI682
asI1061
(lp741
I161
aI683
asI1062
(lp742
I162
aI729
asI1063
(lp743
I163
aI730
asI1064
(lp744
I164
aI731
asI1065
(lp745
I165
aI732
asI1066
(lp746
I166
aI733
asI1067
(lp747
I167
aI734
asI1068
(lp748
I168
aI735
asI1069
(lp749
I169
aI736
asI1070
(lp750
I170
aI737
asI1071
(lp751
I171
aI711
asI1072
(lp752
I172
aI712
asI1073
(lp753
I173
aI713
asI1074
(lp754
I174
aI714
asI1075
(lp755
I175
aI715
asI1076
(lp756
I176
aI716
asI1077
(lp757
I177
aI717
asI1078
(lp758
I178
aI718
asI1079
(lp759
I179
aI719
asI1080
(lp760
I180
aI720
asI1081
(lp761
I181
aI721
asI1082
(lp762
I182
aI722
asI1083
(lp763
I183
aI723
asI1084
(lp764
I184
aI724
asI1085
(lp765
I185
aI725
asI1086
(lp766
I186
aI726
asI1087
(lp767
I187
aI727
asI1088
(lp768
I188
aI728
asI1089
(lp769
I189
aI693
asI1090
(lp770
I190
aI694
asI1091
(lp771
I191
aI695
asI1092
(lp772
I192
aI696
asI1093
(lp773
I193
aI697
asI1094
(lp774
I194
aI698
asI1095
(lp775
I195
aI699
asI1096
(lp776
I196
aI700
asI1097
(lp777
I197
aI701
asI1098
(lp778
I198
aI702
asI1099
(lp779
I199
aI703
asI1100
(lp780
I200
aI704
asI1101
(lp781
I201
aI705
asI1102
(lp782
I202
aI706
asI1103
(lp783
I203
aI707
asI1104
(lp784
I204
aI708
asI1105
(lp785
I205
aI709
asI1106
(lp786
I206
aI710
asI1107
(lp787
I207
aI684
asI1108
(lp788
I208
aI685
asI1109
(lp789
I209
aI686
asI1110
(lp790
I210
aI687
asI1111
(lp791
I211
aI688
asI1112
(lp792
I212
aI689
asI1113
(lp793
I213
aI690
asI1114
(lp794
I214
aI691
asI1115
(lp795
I215
aI692
asI1116
(lp796
I0
aI630
asI1117
(lp797
I1
aI631
asI1118
(lp798
I2
aI632
asI1119
(lp799
I3
aI633
asI1120
(lp800
I4
aI634
asI1121
(lp801
I5
aI635
asI1122
(lp802
I6
aI636
asI1123
(lp803
I7
aI637
asI1124
(lp804
I8
aI638
asI1125
(lp805
I9
aI639
asI1126
(lp806
I10
aI640
asI1127
(lp807
I11
aI641
asI1128
(lp808
I12
aI642
asI1129
(lp809
I13
aI643
asI1130
(lp810
I14
aI644
asI1131
(lp811
I15
aI645
asI1132
(lp812
I16
aI646
asI1133
(lp813
I17
aI647
asI1134
(lp814
I18
aI648
asI1135
(lp815
I19
aI649
asI1136
(lp816
I20
aI650
asI1137
(lp817
I21
aI651
asI1138
(lp818
I22
aI652
asI1139
(lp819
I23
aI653
asI1140
(lp820
I24
aI654
asI1141
(lp821
I25
aI655
asI1142
(lp822
I26
aI656
asI1143
(lp823
I27
aI657
asI1144
(lp824
I28
aI658
asI1145
(lp825
I29
aI659
asI1146
(lp826
I30
aI660
asI1147
(lp827
I31
aI661
asI1148
(lp828
I32
aI662
asI1149
(lp829
I33
aI663
asI1150
(lp830
I34
aI664
asI1151
(lp831
I35
aI665
asI1152
(lp832
I36
aI666
asI1153
(lp833
I37
aI667
asI1154
(lp834
I38
aI668
asI1155
(lp835
I39
aI669
asI1156
(lp836
I40
aI670
asI1157
(lp837
I41
aI671
asI1158
(lp838
I42
aI672
asI1159
(lp839
I43
aI673
asI1160
(lp840
I44
aI674
asI1161
(lp841
I45
aI675
asI1162
(lp842
I46
aI676
asI1163
(lp843
I47
aI677
asI1164
(lp844
I48
aI678
asI1165
(lp845
I49
aI679
asI1166
(lp846
I50
aI680
asI1167
(lp847
I51
aI681
asI1168
(lp848
I52
aI682
asI1169
(lp849
I53
aI683
asI1170
(lp850
I54
aI684
asI1171
(lp851
I55
aI685
asI1172
(lp852
I56
aI686
asI1173
(lp853
I57
aI687
asI1174
(lp854
I58
aI688
asI1175
(lp855
I59
aI689
asI1176
(lp856
I60
aI690
asI1177
(lp857
I61
aI691
asI1178
(lp858
I62
aI692
asI1179
(lp859
I63
aI693
asI1180
(lp860
I64
aI694
asI1181
(lp861
I65
aI695
asI1182
(lp862
I66
aI696
asI1183
(lp863
I67
aI697
asI1184
(lp864
I68
aI698
asI1185
(lp865
I69
aI699
asI1186
(lp866
I70
aI700
asI1187
(lp867
I71
aI701
asI1188
(lp868
I72
aI702
asI1189
(lp869
I73
aI703
asI1190
(lp870
I74
aI704
asI1191
(lp871
I75
aI705
asI1192
(lp872
I76
aI706
asI1193
(lp873
I77
aI707
asI1194
(lp874
I78
aI708
asI1195
(lp875
I79
aI709
asI1196
(lp876
I80
aI710
asI1197
(lp877
I82
aI711
asI1198
(lp878
I83
aI712
asI1199
(lp879
I81
aI713
asI1200
(lp880
I85
aI714
asI1201
(lp881
I86
aI715
asI1202
(lp882
I84
aI716
asI1203
(lp883
I88
aI717
asI1204
(lp884
I89
aI718
asI1205
(lp885
I87
aI719
asI1206
(lp886
I91
aI720
asI1207
(lp887
I92
aI721
asI1208
(lp888
I90
aI722
asI1209
(lp889
I94
aI723
asI1210
(lp890
I95
aI724
asI1211
(lp891
I93
aI725
asI1212
(lp892
I97
aI726
asI1213
(lp893
I98
aI727
asI1214
(lp894
I96
aI728
asI1215
(lp895
I100
aI729
asI1216
(lp896
I101
aI730
asI1217
(lp897
I99
aI731
asI1218
(lp898
I103
aI732
asI1219
(lp899
I104
aI733
asI1220
(lp900
I102
aI734
asI1221
(lp901
I106
aI735
asI1222
(lp902
I107
aI736
asI1223
(lp903
I105
aI737
asI1224
(lp904
I110
aI684
asI1225
(lp905
I108
aI685
asI1226
(lp906
I109
aI686
asI1227
(lp907
I113
aI687
asI1228
(lp908
I111
aI688
asI1229
(lp909
I112
aI689
asI1230
(lp910
I116
aI690
asI1231
(lp911
I114
aI691
asI1232
(lp912
I115
aI692
asI1233
(lp913
I119
aI693
asI1234
(lp914
I117
aI694
asI1235
(lp915
I118
aI695
asI1236
(lp916
I122
aI696
asI1237
(lp917
I120
aI697
asI1238
(lp918
I121
aI698
asI1239
(lp919
I125
aI699
asI1240
(lp920
I123
aI700
asI1241
(lp921
I124
aI701
asI1242
(lp922
I128
aI702
asI1243
(lp923
I126
aI703
asI1244
(lp924
I127
aI704
asI1245
(lp925
I131
aI705
asI1246
(lp926
I129
aI706
asI1247
(lp927
I130
aI707
asI1248
(lp928
I134
aI708
asI1249
(lp929
I132
aI709
asI1250
(lp930
I133
aI710
asI1251
(lp931
I135
aI711
asI1252
(lp932
I136
aI712
asI1253
(lp933
I137
aI713
asI1254
(lp934
I138
aI714
asI1255
(lp935
I139
aI715
asI1256
(lp936
I140
aI716
asI1257
(lp937
I141
aI717
asI1258
(lp938
I142
aI718
asI1259
(lp939
I143
aI719
asI1260
(lp940
I144
aI720
asI1261
(lp941
I145
aI721
asI1262
(lp942
I146
aI722
asI1263
(lp943
I147
aI723
asI1264
(lp944
I148
aI724
asI1265
(lp945
I149
aI725
asI1266
(lp946
I150
aI726
asI1267
(lp947
I151
aI727
asI1268
(lp948
I152
aI728
asI1269
(lp949
I153
aI729
asI1270
(lp950
I154
aI730
asI1271
(lp951
I155
aI731
asI1272
(lp952
I156
aI732
asI1273
(lp953
I157
aI733
asI1274
(lp954
I158
aI734
asI1275
(lp955
I159
aI735
asI1276
(lp956
I160
aI736
asI1277
(lp957
I161
aI737
asI1278
(lp958
I162
aI631
asI1279
(lp959
I163
aI632
asI1280
(lp960
I165
aI634
asI1281
(lp961
I166
aI635
asI1282
(lp962
I168
aI637
asI1283
(lp963
I169
aI638
asI1284
(lp964
I171
aI640
asI1285
(lp965
I172
aI641
asI1286
(lp966
I174
aI643
asI1287
(lp967
I175
aI644
asI1288
(lp968
I177
aI646
asI1289
(lp969
I178
aI647
asI1290
(lp970
I180
aI649
asI1291
(lp971
I181
aI650
asI1292
(lp972
I183
aI652
asI1293
(lp973
I184
aI653
asI1294
(lp974
I186
aI655
asI1295
(lp975
I187
aI656
asI1296
(lp976
I189
aI657
asI1297
(lp977
I190
aI658
asI1298
(lp978
I191
aI659
asI1299
(lp979
I192
aI660
asI1300
(lp980
I193
aI661
asI1301
(lp981
I194
aI662
asI1302
(lp982
I195
aI663
asI1303
(lp983
I196
aI664
asI1304
(lp984
I197
aI665
asI1305
(lp985
I198
aI666
asI1306
(lp986
I199
aI667
asI1307
(lp987
I200
aI668
asI1308
(lp988
I201
aI669
asI1309
(lp989
I202
aI670
asI1310
(lp990
I203
aI671
asI1311
(lp991
I204
aI672
asI1312
(lp992
I205
aI673
asI1313
(lp993
I206
aI674
asI1314
(lp994
I207
aI675
asI1315
(lp995
I208
aI676
asI1316
(lp996
I209
aI677
asI1317
(lp997
I210
aI678
asI1318
(lp998
I211
aI679
asI1319
(lp999
I212
aI680
asI1320
(lp1000
I213
aI681
asI1321
(lp1001
I214
aI682
asI1322
(lp1002
I215
aI683
asI1323
(lp1003
I108
aI631
asI1324
(lp1004
I109
aI632
asI1325
(lp1005
I111
aI634
asI1326
(lp1006
I112
aI635
asI1327
(lp1007
I114
aI637
asI1328
(lp1008
I115
aI638
asI1329
(lp1009
I117
aI640
asI1330
(lp1010
I118
aI641
asI1331
(lp1011
I120
aI643
asI1332
(lp1012
I121
aI644
asI1333
(lp1013
I123
aI646
asI1334
(lp1014
I124
aI647
asI1335
(lp1015
I126
aI649
asI1336
(lp1016
I127
aI650
asI1337
(lp1017
I129
aI652
asI1338
(lp1018
I130
aI653
asI1339
(lp1019
I132
aI655
asI1340
(lp1020
I133
aI656
asI1341
(lp1021
I135
aI657
asI1342
(lp1022
I136
aI658
asI1343
(lp1023
I137
aI659
asI1344
(lp1024
I138
aI660
asI1345
(lp1025
I139
aI661
asI1346
(lp1026
I140
aI662
asI1347
(lp1027
I141
aI663
asI1348
(lp1028
I142
aI664
asI1349
(lp1029
I143
aI665
asI1350
(lp1030
I144
aI666
asI1351
(lp1031
I145
aI667
asI1352
(lp1032
I146
aI668
asI1353
(lp1033
I147
aI669
asI1354
(lp1034
I148
aI670
asI1355
(lp1035
I149
aI671
asI1356
(lp1036
I150
aI672
asI1357
(lp1037
I151
aI673
asI1358
(lp1038
I152
aI674
asI1359
(lp1039
I153
aI675
asI1360
(lp1040
I154
aI676
asI1361
(lp1041
I155
aI677
asI1362
(lp1042
I156
aI678
asI1363
(lp1043
I157
aI679
asI1364
(lp1044
I158
aI680
asI1365
(lp1045
I159
aI681
asI1366
(lp1046
I160
aI682
asI1367
(lp1047
I161
aI683
asI1368
(lp1048
I189
aI693
asI1369
(lp1049
I190
aI694
asI1370
(lp1050
I191
aI695
asI1371
(lp1051
I192
aI696
asI1372
(lp1052
I193
aI697
asI1373
(lp1053
I194
aI698
asI1374
(lp1054
I195
aI699
asI1375
(lp1055
I196
aI700
asI1376
(lp1056
I197
aI701
asI1377
(lp1057
I198
aI702
asI1378
(lp1058
I199
aI703
asI1379
(lp1059
I200
aI704
asI1380
(lp1060
I201
aI705
asI1381
(lp1061
I202
aI706
asI1382
(lp1062
I203
aI707
asI1383
(lp1063
I204
aI708
asI1384
(lp1064
I205
aI709
asI1385
(lp1065
I206
aI710
asI1386
(lp1066
I171
aI711
asI1387
(lp1067
I172
aI712
asI1388
(lp1068
I173
aI713
asI1389
(lp1069
I174
aI714
asI1390
(lp1070
I175
aI715
asI1391
(lp1071
I176
aI716
asI1392
(lp1072
I177
aI717
asI1393
(lp1073
I178
aI718
asI1394
(lp1074
I179
aI719
asI1395
(lp1075
I180
aI720
asI1396
(lp1076
I181
aI721
asI1397
(lp1077
I182
aI722
asI1398
(lp1078
I183
aI723
asI1399
(lp1079
I184
aI724
asI1400
(lp1080
I185
aI725
asI1401
(lp1081
I186
aI726
asI1402
(lp1082
I187
aI727
asI1403
(lp1083
I188
aI728
asI1404
(lp1084
I3
aI684
asI1405
(lp1085
I4
aI685
asI1406
(lp1086
I5
aI686
asI1407
(lp1087
I6
aI687
asI1408
(lp1088
I7
aI688
asI1409
(lp1089
I8
aI689
asI1410
(lp1090
I12
aI693
asI1411
(lp1091
I13
aI694
asI1412
(lp1092
I14
aI695
asI1413
(lp1093
I15
aI696
asI1414
(lp1094
I16
aI697
asI1415
(lp1095
I17
aI698
asI1416
(lp1096
I21
aI702
asI1417
(lp1097
I22
aI703
asI1418
(lp1098
I23
aI704
asI1419
(lp1099
I24
aI705
asI1420
(lp1100
I25
aI706
asI1421
(lp1101
I26
aI707
asI1422
(lp1102
I27
aI714
asI1423
(lp1103
I28
aI715
asI1424
(lp1104
I29
aI716
asI1425
(lp1105
I30
aI717
asI1426
(lp1106
I31
aI718
asI1427
(lp1107
I32
aI719
asI1428
(lp1108
I36
aI723
asI1429
(lp1109
I37
aI724
asI1430
(lp1110
I38
aI725
asI1431
(lp1111
I39
aI726
asI1432
(lp1112
I40
aI727
asI1433
(lp1113
I41
aI728
asI1434
(lp1114
I45
aI732
asI1435
(lp1115
I46
aI733
asI1436
(lp1116
I47
aI734
asI1437
(lp1117
I48
aI735
asI1438
(lp1118
I49
aI736
asI1439
(lp1119
I50
aI737
asI1440
(lp1120
I81
aI630
asI1441
(lp1121
I82
aI631
asI1442
(lp1122
I83
aI632
asI1443
(lp1123
I84
aI633
asI1444
(lp1124
I85
aI634
asI1445
(lp1125
I86
aI635
asI1446
(lp1126
I87
aI636
asI1447
(lp1127
I88
aI637
asI1448
(lp1128
I89
aI638
asI1449
(lp1129
I90
aI639
asI1450
(lp1130
I91
aI640
asI1451
(lp1131
I92
aI641
asI1452
(lp1132
I93
aI642
asI1453
(lp1133
I94
aI643
asI1454
(lp1134
I95
aI644
asI1455
(lp1135
I96
aI645
asI1456
(lp1136
I97
aI646
asI1457
(lp1137
I98
aI647
asI1458
(lp1138
I99
aI648
asI1459
(lp1139
I100
aI649
asI1460
(lp1140
I101
aI650
asI1461
(lp1141
I102
aI651
asI1462
(lp1142
I103
aI652
asI1463
(lp1143
I104
aI653
asI1464
(lp1144
I105
aI654
asI1465
(lp1145
I106
aI655
asI1466
(lp1146
I107
aI656
asI1467
(lp1147
I54
aI657
asI1468
(lp1148
I55
aI658
asI1469
(lp1149
I56
aI659
asI1470
(lp1150
I57
aI660
asI1471
(lp1151
I58
aI661
asI1472
(lp1152
I59
aI662
asI1473
(lp1153
I60
aI663
asI1474
(lp1154
I61
aI664
asI1475
(lp1155
I62
aI665
asI1476
(lp1156
I63
aI666
asI1477
(lp1157
I64
aI667
asI1478
(lp1158
I65
aI668
asI1479
(lp1159
I66
aI669
asI1480
(lp1160
I67
aI670
asI1481
(lp1161
I68
aI671
asI1482
(lp1162
I69
aI672
asI1483
(lp1163
I70
aI673
asI1484
(lp1164
I71
aI674
asI1485
(lp1165
I72
aI675
asI1486
(lp1166
I73
aI676
asI1487
(lp1167
I74
aI677
asI1488
(lp1168
I75
aI678
asI1489
(lp1169
I76
aI679
asI1490
(lp1170
I77
aI680
asI1491
(lp1171
I78
aI681
asI1492
(lp1172
I79
aI682
asI1493
(lp1173
I80
aI683
asI1494
(lp1174
I0
aI99
asI1495
(lp1175
I1
aI100
asI1496
(lp1176
I2
aI101
asI1497
(lp1177
I3
aI102
asI1498
(lp1178
I4
aI103
asI1499
(lp1179
I5
aI104
asI1500
(lp1180
I6
aI105
asI1501
(lp1181
I7
aI106
asI1502
(lp1182
I8
aI107
asI1503
(lp1183
I45
aI54
asI1504
(lp1184
I46
aI55
asI1505
(lp1185
I47
aI56
asI1506
(lp1186
I48
aI57
asI1507
(lp1187
I49
aI58
asI1508
(lp1188
I50
aI59
asI1509
(lp1189
I51
aI60
asI1510
(lp1190
I52
aI61
asI1511
(lp1191
I53
aI62
asI1512
(lp1192
I81
aI713
asI1513
(lp1193
I29
aI81
asI1514
(lp1194
I84
aI716
asI1515
(lp1195
I32
aI84
asI1516
(lp1196
I87
aI719
asI1517
(lp1197
I35
aI87
asI1518
(lp1198
I90
aI722
asI1519
(lp1199
I38
aI90
asI1520
(lp1200
I93
aI725
asI1521
(lp1201
I41
aI93
asI1522
(lp1202
I96
aI728
asI1523
(lp1203
I44
aI96
asI1524
(lp1204
I99
aI731
asI1525
(lp1205
I47
aI99
asI1526
(lp1206
I102
aI734
asI1527
(lp1207
I50
aI102
asI1528
(lp1208
I105
aI737
asI1529
(lp1209
I53
aI105
asI1530
(lp1210
I110
aI684
asI1531
(lp1211
I110
aI189
asI1532
(lp1212
I113
aI687
asI1533
(lp1213
I113
aI192
asI1534
(lp1214
I116
aI690
asI1535
(lp1215
I116
aI195
asI1536
(lp1216
I119
aI693
asI1537
(lp1217
I119
aI198
asI1538
(lp1218
I122
aI696
asI1539
(lp1219
I122
aI201
asI1540
(lp1220
I125
aI699
asI1541
(lp1221
I125
aI204
asI1542
(lp1222
I128
aI702
asI1543
(lp1223
I128
aI207
asI1544
(lp1224
I131
aI705
asI1545
(lp1225
I131
aI210
asI1546
(lp1226
I134
aI708
asI1547
(lp1227
I134
aI213
asI1548
(lp1228
I114
aI162
asI1549
(lp1229
I115
aI163
asI1550
(lp1230
I116
aI164
asI1551
(lp1231
I123
aI171
asI1552
(lp1232
I124
aI172
asI1553
(lp1233
I125
aI173
asI1554
(lp1234
I132
aI180
asI1555
(lp1235
I133
aI181
asI1556
(lp1236
I134
aI182
asI1557
(lp1237
I135
aI195
asI1558
(lp1238
I136
aI196
asI1559
(lp1239
I137
aI197
asI1560
(lp1240
I144
aI204
asI1561
(lp1241
I145
aI205
asI1562
(lp1242
I146
aI206
asI1563
(lp1243
I153
aI213
asI1564
(lp1244
I154
aI214
asI1565
(lp1245
I155
aI215
asI1566
(lp1246
I164
aI630
asI1567
(lp1247
I110
aI630
asI1568
(lp1248
I167
aI633
asI1569
(lp1249
I113
aI633
asI1570
(lp1250
I170
aI636
asI1571
(lp1251
I116
aI636
asI1572
(lp1252
I173
aI639
asI1573
(lp1253
I119
aI639
asI1574
(lp1254
I176
aI642
asI1575
(lp1255
I122
aI642
asI1576
(lp1256
I179
aI645
asI1577
(lp1257
I125
aI645
asI1578
(lp1258
I182
aI648
asI1579
(lp1259
I128
aI648
asI1580
(lp1260
I185
aI651
asI1581
(lp1261
I131
aI651
asI1582
(lp1262
I188
aI654
asI1583
(lp1263
I134
aI654
asI1584
(lp1264
I207
aI684
asI1585
(lp1265
I208
aI685
asI1586
(lp1266
I209
aI686
asI1587
(lp1267
I210
aI687
asI1588
(lp1268
I211
aI688
asI1589
(lp1269
I212
aI689
asI1590
(lp1270
I213
aI690
asI1591
(lp1271
I0
aI690
asI1592
(lp1272
I214
aI691
asI1593
(lp1273
I1
aI691
asI1594
(lp1274
I215
aI692
asI1595
(lp1275
I2
aI692
asI1596
(lp1276
I9
aI699
asI1597
(lp1277
I10
aI700
asI1598
(lp1278
I11
aI701
asI1599
(lp1279
I18
aI708
asI1600
(lp1280
I19
aI709
asI1601
(lp1281
I20
aI710
asI1602
(lp1282
I33
aI711
asI1603
(lp1283
I34
aI712
asI1604
(lp1284
I35
aI713
asI1605
(lp1285
I42
aI720
asI1606
(lp1286
I43
aI721
asI1607
(lp1287
I44
aI722
asI1608
(lp1288
I51
aI729
asI1609
(lp1289
I162
aI729
asI1610
(lp1290
I52
aI730
asI1611
(lp1291
I163
aI730
asI1612
(lp1292
I53
aI731
asI1613
(lp1293
I164
aI731
asI1614
(lp1294
I165
aI732
asI1615
(lp1295
I166
aI733
asI1616
(lp1296
I167
aI734
asI1617
(lp1297
I168
aI735
asI1618
(lp1298
I169
aI736
asI1619
(lp1299
I170
aI737
as.