ccollections
defaultdict
p0
(c__builtin__
list
p1
tp2
Rp3
I288
(lp4
I0
aI840
asI289
(lp5
I1
aI841
asI290
(lp6
I2
aI842
asI291
(lp7
I3
aI843
asI292
(lp8
I4
aI844
asI293
(lp9
I5
aI845
asI294
(lp10
I6
aI846
asI295
(lp11
I7
aI847
asI296
(lp12
I8
aI848
asI297
(lp13
I9
aI849
asI298
(lp14
I10
aI850
asI299
(lp15
I11
aI851
asI300
(lp16
I12
aI852
asI301
(lp17
I13
aI853
asI302
(lp18
I14
aI854
asI303
(lp19
I15
aI855
asI304
(lp20
I16
aI856
asI305
(lp21
I17
aI857
asI306
(lp22
I18
aI858
asI307
(lp23
I19
aI859
asI308
(lp24
I20
aI860
asI309
(lp25
I21
aI861
asI310
(lp26
I22
aI862
asI311
(lp27
I23
aI863
asI312
(lp28
I24
aI864
asI313
(lp29
I25
aI865
asI314
(lp30
I26
aI866
asI315
(lp31
I27
aI867
asI316
(lp32
I28
aI868
asI317
(lp33
I29
aI869
asI318
(lp34
I30
aI870
asI319
(lp35
I31
aI871
asI320
(lp36
I32
aI872
asI321
(lp37
I33
aI873
asI322
(lp38
I34
aI874
asI323
(lp39
I35
aI875
asI324
(lp40
I36
aI876
asI325
(lp41
I37
aI877
asI326
(lp42
I38
aI878
asI327
(lp43
I39
aI879
asI328
(lp44
I40
aI880
asI329
(lp45
I41
aI881
asI330
(lp46
I42
aI882
asI331
(lp47
I43
aI883
asI332
(lp48
I44
aI884
asI333
(lp49
I45
aI885
asI334
(lp50
I46
aI886
asI335
(lp51
I47
aI887
asI336
(lp52
I48
aI888
asI337
(lp53
I49
aI889
asI338
(lp54
I50
aI890
asI339
(lp55
I51
aI891
asI340
(lp56
I52
aI892
asI341
(lp57
I53
aI893
asI342
(lp58
I54
aI894
asI343
(lp59
I55
aI895
asI344
(lp60
I56
aI896
asI345
(lp61
I57
aI897
asI346
(lp62
I58
aI898
asI347
(lp63
I59
aI899
asI348
(lp64
I60
aI900
asI349
(lp65
I61
aI901
asI350
(lp66
I62
aI902
asI351
(lp67
I63
aI903
asI352
(lp68
I64
aI904
asI353
(lp69
I65
aI905
asI354
(lp70
I66
aI906
asI355
(lp71
I67
aI907
asI356
(lp72
I68
aI908
asI357
(lp73
I69
aI909
asI358
(lp74
I70
aI910
asI359
(lp75
I71
aI911
asI360
(lp76
I72
aI912
asI361
(lp77
I73
aI913
asI362
(lp78
I74
aI914
asI363
(lp79
I75
aI915
asI364
(lp80
I76
aI916
asI365
(lp81
I77
aI917
asI366
(lp82
I78
aI918
asI367
(lp83
I79
aI919
asI368
(lp84
I80
aI920
asI369
(lp85
I81
aI921
asI370
(lp86
I82
aI922
asI371
(lp87
I83
aI923
asI372
(lp88
I84
aI924
asI373
(lp89
I85
aI925
asI374
(lp90
I86
aI926
asI375
(lp91
I87
aI927
asI376
(lp92
I88
aI928
asI377
(lp93
I89
aI929
asI378
(lp94
I90
aI930
asI379
(lp95
I91
aI931
asI380
(lp96
I92
aI932
asI381
(lp97
I93
aI933
asI382
(lp98
I94
aI934
asI383
(lp99
I95
aI935
asI384
(lp100
I96
aI936
asI385
(lp101
I97
aI937
asI386
(lp102
I98
aI938
asI387
(lp103
I99
aI939
asI388
(lp104
I100
aI940
asI389
(lp105
I101
aI941
asI390
(lp106
I102
aI942
asI391
(lp107
I103
aI943
asI392
(lp108
I104
aI944
asI393
(lp109
I105
aI945
asI394
(lp110
I106
aI946
asI395
(lp111
I107
aI947
asI396
(lp112
I109
aI948
asI397
(lp113
I110
aI949
asI398
(lp114
I112
aI951
asI399
(lp115
I113
aI952
asI400
(lp116
I115
aI954
asI401
(lp117
I116
aI955
asI402
(lp118
I118
aI957
asI403
(lp119
I119
aI958
asI404
(lp120
I121
aI960
asI405
(lp121
I122
aI961
asI406
(lp122
I124
aI963
asI407
(lp123
I125
aI964
asI408
(lp124
I127
aI966
asI409
(lp125
I128
aI967
asI410
(lp126
I130
aI969
asI411
(lp127
I131
aI970
asI412
(lp128
I133
aI972
asI413
(lp129
I134
aI973
asI414
(lp130
I136
aI975
asI415
(lp131
I137
aI976
asI416
(lp132
I139
aI978
asI417
(lp133
I140
aI979
asI418
(lp134
I142
aI981
asI419
(lp135
I143
aI982
asI420
(lp136
I144
aI913
asI421
(lp137
I145
aI914
asI422
(lp138
I147
aI916
asI423
(lp139
I148
aI917
asI424
(lp140
I150
aI919
asI425
(lp141
I151
aI920
asI426
(lp142
I153
aI922
asI427
(lp143
I154
aI923
asI428
(lp144
I156
aI925
asI429
(lp145
I157
aI926
asI430
(lp146
I159
aI928
asI431
(lp147
I160
aI929
asI432
(lp148
I162
aI931
asI433
(lp149
I163
aI932
asI434
(lp150
I165
aI934
asI435
(lp151
I166
aI935
asI436
(lp152
I168
aI937
asI437
(lp153
I169
aI938
asI438
(lp154
I171
aI940
asI439
(lp155
I172
aI941
asI440
(lp156
I174
aI943
asI441
(lp157
I175
aI944
asI442
(lp158
I177
aI946
asI443
(lp159
I178
aI947
asI444
(lp160
I180
aI948
asI445
(lp161
I181
aI949
asI446
(lp162
I182
aI950
asI447
(lp163
I183
aI951
asI448
(lp164
I184
aI952
asI449
(lp165
I185
aI953
asI450
(lp166
I186
aI954
asI451
(lp167
I187
aI955
asI452
(lp168
I188
aI956
asI453
(lp169
I189
aI957
asI454
(lp170
I190
aI958
asI455
(lp171
I191
aI959
asI456
(lp172
I192
aI960
asI457
(lp173
I193
aI961
asI458
(lp174
I194
aI962
asI459
(lp175
I195
aI963
asI460
(lp176
I196
aI964
asI461
(lp177
I197
aI965
asI462
(lp178
I198
aI966
asI463
(lp179
I199
aI967
asI464
(lp180
I200
aI968
asI465
(lp181
I201
aI969
asI466
(lp182
I202
aI970
asI467
(lp183
I203
aI971
asI468
(lp184
I204
aI972
asI469
(lp185
I205
aI973
asI470
(lp186
I206
aI974
asI471
(lp187
I207
aI975
asI472
(lp188
I208
aI976
asI473
(lp189
I209
aI977
asI474
(lp190
I210
aI978
asI475
(lp191
I211
aI979
asI476
(lp192
I212
aI980
asI477
(lp193
I213
aI981
asI478
(lp194
I214
aI982
asI479
(lp195
I215
aI983
asI480
(lp196
I216
aI841
asI481
(lp197
I217
aI842
asI482
(lp198
I218
aI840
asI483
(lp199
I219
aI844
asI484
(lp200
I220
aI845
asI485
(lp201
I221
aI843
asI486
(lp202
I222
aI847
asI487
(lp203
I223
aI848
asI488
(lp204
I224
aI846
asI489
(lp205
I225
aI850
asI490
(lp206
I226
aI851
asI491
(lp207
I227
aI849
asI492
(lp208
I228
aI853
asI493
(lp209
I229
aI854
asI494
(lp210
I230
aI852
asI495
(lp211
I231
aI856
asI496
(lp212
I232
aI857
asI497
(lp213
I233
aI855
asI498
(lp214
I234
aI859
asI499
(lp215
I235
aI860
asI500
(lp216
I236
aI858
asI501
(lp217
I237
aI862
asI502
(lp218
I238
aI863
asI503
(lp219
I239
aI861
asI504
(lp220
I240
aI865
asI505
(lp221
I241
aI866
asI506
(lp222
I242
aI864
asI507
(lp223
I243
aI868
asI508
(lp224
I244
aI869
asI509
(lp225
I245
aI867
asI510
(lp226
I246
aI871
asI511
(lp227
I247
aI872
asI512
(lp228
I248
aI870
asI513
(lp229
I249
aI874
asI514
(lp230
I250
aI875
asI515
(lp231
I251
aI873
asI516
(lp232
I252
aI876
asI517
(lp233
I253
aI877
asI518
(lp234
I254
aI878
asI519
(lp235
I255
aI879
asI520
(lp236
I256
aI880
asI521
(lp237
I257
aI881
asI522
(lp238
I258
aI882
asI523
(lp239
I259
aI883
asI524
(lp240
I260
aI884
asI525
(lp241
I261
aI885
asI526
(lp242
I262
aI886
asI527
(lp243
I263
aI887
asI528
(lp244
I264
aI888
asI529
(lp245
I265
aI889
asI530
(lp246
I266
aI890
asI531
(lp247
I267
aI891
asI532
(lp248
I268
aI892
asI533
(lp249
I269
aI893
asI534
(lp250
I270
aI894
asI535
(lp251
I271
aI895
asI536
(lp252
I272
aI896
asI537
(lp253
I273
aI897
asI538
(lp254
I274
aI898
asI539
(lp255
I275
aI899
asI540
(lp256
I276
aI900
asI541
(lp257
I277
aI901
asI542
(lp258
I278
aI902
asI543
(lp259
I279
aI903
asI544
(lp260
I280
aI904
asI545
(lp261
I281
aI905
asI546
(lp262
I282
aI906
asI547
(lp263
I283
aI907
asI548
(lp264
I284
aI908
asI549
(lp265
I285
aI909
asI550
(lp266
I286
aI910
asI551
(lp267
I287
aI911
asI552
(lp268
I0
aI72
asI553
(lp269
I1
aI73
asI554
(lp270
I2
aI74
asI555
(lp271
I3
aI75
asI556
(lp272
I4
aI76
asI557
(lp273
I5
aI77
asI558
(lp274
I6
aI78
asI559
(lp275
I7
aI79
asI560
(lp276
I8
aI80
asI561
(lp277
I9
aI81
asI562
(lp278
I10
aI82
asI563
(lp279
I11
aI83
asI564
(lp280
I12
aI84
asI565
(lp281
I13
aI85
asI566
(lp282
I14
aI86
asI567
(lp283
I15
aI87
asI568
(lp284
I16
aI88
asI569
(lp285
I17
aI89
asI570
(lp286
I18
aI90
asI571
(lp287
I19
aI91
asI572
(lp288
I20
aI92
asI573
(lp289
I21
aI93
asI574
(lp290
I22
aI94
asI575
(lp291
I23
aI95
asI576
(lp292
I24
aI96
asI577
(lp293
I25
aI97
asI578
(lp294
I26
aI98
asI579
(lp295
I27
aI99
asI580
(lp296
I28
aI100
asI581
(lp297
I29
aI101
asI582
(lp298
I30
aI102
asI583
(lp299
I31
aI103
asI584
(lp300
I32
aI104
asI585
(lp301
I33
aI105
asI586
(lp302
I34
aI106
asI587
(lp303
I35
aI107
asI588
(lp304
I36
aI109
asI589
(lp305
I37
aI110
asI590
(lp306
I38
aI108
asI591
(lp307
I39
aI112
asI592
(lp308
I40
aI113
asI593
(lp309
I41
aI111
asI594
(lp310
I42
aI115
asI595
(lp311
I43
aI116
asI596
(lp312
I44
aI114
asI597
(lp313
I45
aI118
asI598
(lp314
I46
aI119
asI599
(lp315
I47
aI117
asI600
(lp316
I48
aI121
asI601
(lp317
I49
aI122
asI602
(lp318
I50
aI120
asI603
(lp319
I51
aI124
asI604
(lp320
I52
aI125
asI605
(lp321
I53
aI123
asI606
(lp322
I54
aI127
asI607
(lp323
I55
aI128
asI608
(lp324
I56
aI126
asI609
(lp325
I57
aI130
asI610
(lp326
I58
aI131
asI611
(lp327
I59
aI129
asI612
(lp328
I60
aI133
asI613
(lp329
I61
aI134
asI614
(lp330
I62
aI132
asI615
(lp331
I63
aI136
asI616
(lp332
I64
aI137
asI617
(lp333
I65
aI135
asI618
(lp334
I66
aI139
asI619
(lp335
I67
aI140
asI620
(lp336
I68
aI138
asI621
(lp337
I69
aI142
asI622
(lp338
I70
aI143
asI623
(lp339
I71
aI141
asI624
(lp340
I60
aI72
asI625
(lp341
I61
aI73
asI626
(lp342
I62
aI74
asI627
(lp343
I63
aI75
asI628
(lp344
I64
aI76
asI629
(lp345
I65
aI77
asI630
(lp346
I66
aI78
asI631
(lp347
I67
aI79
asI632
(lp348
I68
aI80
asI633
(lp349
I69
aI81
asI634
(lp350
I70
aI82
asI635
(lp351
I71
aI83
asI636
(lp352
I36
aI84
asI637
(lp353
I37
aI85
asI638
(lp354
I38
aI86
asI639
(lp355
I39
aI87
asI640
(lp356
I40
aI88
asI641
(lp357
I41
aI89
asI642
(lp358
I42
aI90
asI643
(lp359
I43
aI91
asI644
(lp360
I44
aI92
asI645
(lp361
I45
aI93
asI646
(lp362
I46
aI94
asI647
(lp363
I47
aI95
asI648
(lp364
I48
aI96
asI649
(lp365
I49
aI97
asI650
(lp366
I50
aI98
asI651
(lp367
I51
aI99
asI652
(lp368
I52
aI100
asI653
(lp369
I53
aI101
asI654
(lp370
I54
aI102
asI655
(lp371
I55
aI103
asI656
(lp372
I56
aI104
asI657
(lp373
I57
aI105
asI658
(lp374
I58
aI106
asI659
(lp375
I59
aI107
asI660
(lp376
I12
aI108
asI661
(lp377
I13
aI109
asI662
(lp378
I14
aI110
asI663
(lp379
I15
aI111
asI664
(lp380
I16
aI112
asI665
(lp381
I17
aI113
asI666
(lp382
I18
aI114
asI667
(lp383
I19
aI115
asI668
(lp384
I20
aI116
asI669
(lp385
I21
aI117
asI670
(lp386
I22
aI118
asI671
(lp387
I23
aI119
asI672
(lp388
I24
aI120
asI673
(lp389
I25
aI121
asI674
(lp390
I26
aI122
asI675
(lp391
I27
aI123
asI676
(lp392
I28
aI124
asI677
(lp393
I29
aI125
asI678
(lp394
I30
aI126
asI679
(lp395
I31
aI127
asI680
(lp396
I32
aI128
asI681
(lp397
I33
aI129
asI682
(lp398
I34
aI130
asI683
(lp399
I35
aI131
asI684
(lp400
I0
aI132
asI685
(lp401
I1
aI133
asI686
(lp402
I2
aI134
asI687
(lp403
I3
aI135
asI688
(lp404
I4
aI136
asI689
(lp405
I5
aI137
asI690
(lp406
I6
aI138
asI691
(lp407
I7
aI139
asI692
(lp408
I8
aI140
asI693
(lp409
I9
aI141
asI694
(lp410
I10
aI142
asI695
(lp411
I11
aI143
asI696
(lp412
I144
aI219
asI697
(lp413
I145
aI220
asI698
(lp414
I146
aI221
asI699
(lp415
I147
aI222
asI700
(lp416
I148
aI223
asI701
(lp417
I149
aI224
asI702
(lp418
I150
aI225
asI703
(lp419
I151
aI226
asI704
(lp420
I152
aI227
asI705
(lp421
I153
aI216
asI706
(lp422
I154
aI217
asI707
(lp423
I155
aI218
asI708
(lp424
I156
aI231
asI709
(lp425
I157
aI232
asI710
(lp426
I158
aI233
asI711
(lp427
I159
aI234
asI712
(lp428
I160
aI235
asI713
(lp429
I161
aI236
asI714
(lp430
I162
aI237
asI715
(lp431
I163
aI238
asI716
(lp432
I164
aI239
asI717
(lp433
I165
aI228
asI718
(lp434
I166
aI229
asI719
(lp435
I167
aI230
asI720
(lp436
I168
aI243
asI721
(lp437
I169
aI244
asI722
(lp438
I170
aI245
asI723
(lp439
I171
aI246
asI724
(lp440
I172
aI247
asI725
(lp441
I173
aI248
asI726
(lp442
I174
aI249
asI727
(lp443
I175
aI250
asI728
(lp444
I176
aI251
asI729
(lp445
I177
aI240
asI730
(lp446
I178
aI241
asI731
(lp447
I179
aI242
asI732
(lp448
I180
aI261
asI733
(lp449
I181
aI262
asI734
(lp450
I182
aI263
asI735
(lp451
I183
aI252
asI736
(lp452
I184
aI253
asI737
(lp453
I185
aI254
asI738
(lp454
I186
aI255
asI739
(lp455
I187
aI256
asI740
(lp456
I188
aI257
asI741
(lp457
I189
aI258
asI742
(lp458
I190
aI259
asI743
(lp459
I191
aI260
asI744
(lp460
I192
aI273
asI745
(lp461
I193
aI274
asI746
(lp462
I194
aI275
asI747
(lp463
I195
aI264
asI748
(lp464
I196
aI265
asI749
(lp465
I197
aI266
asI750
(lp466
I198
aI267
asI751
(lp467
I199
aI268
asI752
(lp468
I200
aI269
asI753
(lp469
I201
aI270
asI754
(lp470
I202
aI271
asI755
(lp471
I203
aI272
asI756
(lp472
I204
aI285
asI757
(lp473
I205
aI286
asI758
(lp474
I206
aI287
asI759
(lp475
I207
aI276
asI760
(lp476
I208
aI277
asI761
(lp477
I209
aI278
asI762
(lp478
I210
aI279
asI763
(lp479
I211
aI280
asI764
(lp480
I212
aI281
asI765
(lp481
I213
aI282
asI766
(lp482
I214
aI283
asI767
(lp483
I215
aI284
asI768
(lp484
I180
aI216
asI769
(lp485
I181
aI217
asI770
(lp486
I182
aI218
asI771
(lp487
I183
aI219
asI772
(lp488
I184
aI220
asI773
(lp489
I185
aI221
asI774
(lp490
I186
aI222
asI775
(lp491
I187
aI223
asI776
(lp492
I188
aI224
asI777
(lp493
I189
aI225
asI778
(lp494
I190
aI226
asI779
(lp495
I191
aI227
asI780
(lp496
I192
aI228
asI781
(lp497
I193
aI229
asI782
(lp498
I194
aI230
asI783
(lp499
I195
aI231
asI784
(lp500
I196
aI232
asI785
(lp501
I197
aI233
asI786
(lp502
I198
aI234
asI787
(lp503
I199
aI235
asI788
(lp504
I200
aI236
asI789
(lp505
I201
aI237
asI790
(lp506
I202
aI238
asI791
(lp507
I203
aI239
asI792
(lp508
I204
aI240
asI793
(lp509
I205
aI241
asI794
(lp510
I206
aI242
asI795
(lp511
I207
aI243
asI796
(lp512
I208
aI244
asI797
(lp513
I209
aI245
asI798
(lp514
I210
aI246
asI799
(lp515
I211
aI247
asI800
(lp516
I212
aI248
asI801
(lp517
I213
aI249
asI802
(lp518
I214
aI250
asI803
(lp519
I215
aI251
asI804
(lp520
I146
aI252
asI805
(lp521
I144
aI253
asI806
(lp522
I145
aI254
asI807
(lp523
I149
aI255
asI808
(lp524
I147
aI256
asI809
(lp525
I148
aI257
asI810
(lp526
I152
aI258
asI811
(lp527
I150
aI259
asI812
(lp528
I151
aI260
asI813
(lp529
I155
aI261
asI814
(lp530
I153
aI262
asI815
(lp531
I154
aI263
asI816
(lp532
I158
aI264
asI817
(lp533
I156
aI265
asI818
(lp534
I157
aI266
asI819
(lp535
I161
aI267
asI820
(lp536
I159
aI268
asI821
(lp537
I160
aI269
asI822
(lp538
I164
aI270
asI823
(lp539
I162
aI271
asI824
(lp540
I163
aI272
asI825
(lp541
I167
aI273
asI826
(lp542
I165
aI274
asI827
(lp543
I166
aI275
asI828
(lp544
I170
aI276
asI829
(lp545
I168
aI277
asI830
(lp546
I169
aI278
asI831
(lp547
I173
aI279
asI832
(lp548
I171
aI280
asI833
(lp549
I172
aI281
asI834
(lp550
I176
aI282
asI835
(lp551
I174
aI283
asI836
(lp552
I175
aI284
asI837
(lp553
I179
aI285
asI838
(lp554
I177
aI286
asI839
(lp555
I178
aI287
asI984
(lp556
I12
aI108
asI985
(lp557
I13
aI109
asI986
(lp558
I14
aI110
asI987
(lp559
I15
aI111
asI988
(lp560
I16
aI112
asI989
(lp561
I17
aI113
asI990
(lp562
I18
aI114
asI991
(lp563
I19
aI115
asI992
(lp564
I20
aI116
asI993
(lp565
I21
aI117
asI994
(lp566
I22
aI118
asI995
(lp567
I23
aI119
asI996
(lp568
I24
aI120
asI997
(lp569
I25
aI121
asI998
(lp570
I26
aI122
asI999
(lp571
I27
aI123
asI1000
(lp572
I28
aI124
asI1001
(lp573
I29
aI125
asI1002
(lp574
I30
aI126
asI1003
(lp575
I31
aI127
asI1004
(lp576
I32
aI128
asI1005
(lp577
I33
aI129
asI1006
(lp578
I34
aI130
asI1007
(lp579
I35
aI131
asI1008
(lp580
I36
aI84
asI1009
(lp581
I37
aI85
asI1010
(lp582
I38
aI86
asI1011
(lp583
I39
aI87
asI1012
(lp584
I40
aI88
asI1013
(lp585
I41
aI89
asI1014
(lp586
I42
aI90
asI1015
(lp587
I43
aI91
asI1016
(lp588
I44
aI92
asI1017
(lp589
I45
aI93
asI1018
(lp590
I46
aI94
asI1019
(lp591
I47
aI95
asI1020
(lp592
I48
aI96
asI1021
(lp593
I49
aI97
asI1022
(lp594
I50
aI98
asI1023
(lp595
I51
aI99
asI1024
(lp596
I52
aI100
asI1025
(lp597
I53
aI101
asI1026
(lp598
I54
aI102
asI1027
(lp599
I55
aI103
asI1028
(lp600
I56
aI104
asI1029
(lp601
I57
aI105
asI1030
(lp602
I58
aI106
asI1031
(lp603
I59
aI107
asI1032
(lp604
I0
aI72
asI1033
(lp605
I1
aI73
asI1034
(lp606
I2
aI74
asI1035
(lp607
I3
aI75
asI1036
(lp608
I4
aI76
asI1037
(lp609
I5
aI77
asI1038
(lp610
I6
aI78
asI1039
(lp611
I7
aI79
asI1040
(lp612
I8
aI80
asI1041
(lp613
I9
aI81
asI1042
(lp614
I10
aI82
asI1043
(lp615
I11
aI83
asI1044
(lp616
I12
aI84
asI1045
(lp617
I13
aI85
asI1046
(lp618
I14
aI86
asI1047
(lp619
I15
aI87
asI1048
(lp620
I16
aI88
asI1049
(lp621
I17
aI89
asI1050
(lp622
I18
aI90
asI1051
(lp623
I19
aI91
asI1052
(lp624
I20
aI92
asI1053
(lp625
I21
aI93
asI1054
(lp626
I22
aI94
asI1055
(lp627
I23
aI95
asI1056
(lp628
I24
aI96
asI1057
(lp629
I25
aI97
asI1058
(lp630
I26
aI98
asI1059
(lp631
I27
aI99
asI1060
(lp632
I28
aI100
asI1061
(lp633
I29
aI101
asI1062
(lp634
I30
aI102
asI1063
(lp635
I31
aI103
asI1064
(lp636
I32
aI104
asI1065
(lp637
I33
aI105
asI1066
(lp638
I34
aI106
asI1067
(lp639
I35
aI107
asI1068
(lp640
I36
aI109
asI1069
(lp641
I37
aI110
asI1070
(lp642
I39
aI112
asI1071
(lp643
I40
aI113
asI1072
(lp644
I42
aI115
asI1073
(lp645
I43
aI116
asI1074
(lp646
I45
aI118
asI1075
(lp647
I46
aI119
asI1076
(lp648
I48
aI121
asI1077
(lp649
I49
aI122
asI1078
(lp650
I51
aI124
asI1079
(lp651
I52
aI125
asI1080
(lp652
I54
aI127
asI1081
(lp653
I55
aI128
asI1082
(lp654
I57
aI130
asI1083
(lp655
I58
aI131
asI1084
(lp656
I60
aI133
asI1085
(lp657
I61
aI134
asI1086
(lp658
I63
aI136
asI1087
(lp659
I64
aI137
asI1088
(lp660
I66
aI139
asI1089
(lp661
I67
aI140
asI1090
(lp662
I69
aI142
asI1091
(lp663
I70
aI143
asI1092
(lp664
I144
aI253
asI1093
(lp665
I145
aI254
asI1094
(lp666
I147
aI256
asI1095
(lp667
I148
aI257
asI1096
(lp668
I150
aI259
asI1097
(lp669
I151
aI260
asI1098
(lp670
I153
aI262
asI1099
(lp671
I154
aI263
asI1100
(lp672
I156
aI265
asI1101
(lp673
I157
aI266
asI1102
(lp674
I159
aI268
asI1103
(lp675
I160
aI269
asI1104
(lp676
I162
aI271
asI1105
(lp677
I163
aI272
asI1106
(lp678
I165
aI274
asI1107
(lp679
I166
aI275
asI1108
(lp680
I168
aI277
asI1109
(lp681
I169
aI278
asI1110
(lp682
I171
aI280
asI1111
(lp683
I172
aI281
asI1112
(lp684
I174
aI283
asI1113
(lp685
I175
aI284
asI1114
(lp686
I177
aI286
asI1115
(lp687
I178
aI287
asI1116
(lp688
I180
aI216
asI1117
(lp689
I181
aI217
asI1118
(lp690
I182
aI218
asI1119
(lp691
I183
aI219
asI1120
(lp692
I184
aI220
asI1121
(lp693
I185
aI221
asI1122
(lp694
I186
aI222
asI1123
(lp695
I187
aI223
asI1124
(lp696
I188
aI224
asI1125
(lp697
I189
aI225
asI1126
(lp698
I190
aI226
asI1127
(lp699
I191
aI227
asI1128
(lp700
I192
aI228
asI1129
(lp701
I193
aI229
asI1130
(lp702
I194
aI230
asI1131
(lp703
I195
aI231
asI1132
(lp704
I196
aI232
asI1133
(lp705
I197
aI233
asI1134
(lp706
I198
aI234
asI1135
(lp707
I199
aI235
asI1136
(lp708
I200
aI236
asI1137
(lp709
I201
aI237
asI1138
(lp710
I202
aI238
asI1139
(lp711
I203
aI239
asI1140
(lp712
I204
aI240
asI1141
(lp713
I205
aI241
asI1142
(lp714
I206
aI242
asI1143
(lp715
I207
aI243
asI1144
(lp716
I208
aI244
asI1145
(lp717
I209
aI245
asI1146
(lp718
I210
aI246
asI1147
(lp719
I211
aI247
asI1148
(lp720
I212
aI248
asI1149
(lp721
I213
aI249
asI1150
(lp722
I214
aI250
asI1151
(lp723
I215
aI251
asI1152
(lp724
I144
aI219
asI1153
(lp725
I145
aI220
asI1154
(lp726
I146
aI221
asI1155
(lp727
I147
aI222
asI1156
(lp728
I148
aI223
asI1157
(lp729
I149
aI224
asI1158
(lp730
I150
aI225
asI1159
(lp731
I151
aI226
asI1160
(lp732
I152
aI227
asI1161
(lp733
I156
aI231
asI1162
(lp734
I157
aI232
asI1163
(lp735
I158
aI233
asI1164
(lp736
I159
aI234
asI1165
(lp737
I160
aI235
asI1166
(lp738
I161
aI236
asI1167
(lp739
I162
aI237
asI1168
(lp740
I163
aI238
asI1169
(lp741
I164
aI239
asI1170
(lp742
I168
aI243
asI1171
(lp743
I169
aI244
asI1172
(lp744
I170
aI245
asI1173
(lp745
I171
aI246
asI1174
(lp746
I172
aI247
asI1175
(lp747
I173
aI248
asI1176
(lp748
I174
aI249
asI1177
(lp749
I175
aI250
asI1178
(lp750
I176
aI251
asI1179
(lp751
I183
aI252
asI1180
(lp752
I184
aI253
asI1181
(lp753
I185
aI254
asI1182
(lp754
I186
aI255
asI1183
(lp755
I187
aI256
asI1184
(lp756
I188
aI257
asI1185
(lp757
I189
aI258
asI1186
(lp758
I190
aI259
asI1187
(lp759
I191
aI260
asI1188
(lp760
I195
aI264
asI1189
(lp761
I196
aI265
asI1190
(lp762
I197
aI266
asI1191
(lp763
I198
aI267
asI1192
(lp764
I199
aI268
asI1193
(lp765
I200
aI269
asI1194
(lp766
I201
aI270
asI1195
(lp767
I202
aI271
asI1196
(lp768
I203
aI272
asI1197
(lp769
I207
aI276
asI1198
(lp770
I208
aI277
asI1199
(lp771
I209
aI278
asI1200
(lp772
I210
aI279
asI1201
(lp773
I211
aI280
asI1202
(lp774
I212
aI281
asI1203
(lp775
I213
aI282
asI1204
(lp776
I214
aI283
asI1205
(lp777
I215
aI284
asI1206
(lp778
I0
aI921
asI1207
(lp779
I1
aI922
asI1208
(lp780
I2
aI923
asI1209
(lp781
I3
aI912
asI1210
(lp782
I4
aI913
asI1211
(lp783
I5
aI914
asI1212
(lp784
I6
aI915
asI1213
(lp785
I7
aI916
asI1214
(lp786
I8
aI917
asI1215
(lp787
I9
aI918
asI1216
(lp788
I10
aI919
asI1217
(lp789
I11
aI920
asI1218
(lp790
I12
aI933
asI1219
(lp791
I13
aI934
asI1220
(lp792
I14
aI935
asI1221
(lp793
I15
aI924
asI1222
(lp794
I16
aI925
asI1223
(lp795
I17
aI926
asI1224
(lp796
I18
aI927
asI1225
(lp797
I19
aI928
asI1226
(lp798
I20
aI929
asI1227
(lp799
I21
aI930
asI1228
(lp800
I22
aI931
asI1229
(lp801
I23
aI932
asI1230
(lp802
I24
aI945
asI1231
(lp803
I25
aI946
asI1232
(lp804
I26
aI947
asI1233
(lp805
I27
aI936
asI1234
(lp806
I28
aI937
asI1235
(lp807
I29
aI938
asI1236
(lp808
I30
aI939
asI1237
(lp809
I31
aI940
asI1238
(lp810
I32
aI941
asI1239
(lp811
I33
aI942
asI1240
(lp812
I34
aI943
asI1241
(lp813
I35
aI944
asI1242
(lp814
I36
aI951
asI1243
(lp815
I37
aI952
asI1244
(lp816
I38
aI953
asI1245
(lp817
I39
aI954
asI1246
(lp818
I40
aI955
asI1247
(lp819
I41
aI956
asI1248
(lp820
I42
aI957
asI1249
(lp821
I43
aI958
asI1250
(lp822
I44
aI959
asI1251
(lp823
I45
aI948
asI1252
(lp824
I46
aI949
asI1253
(lp825
I47
aI950
asI1254
(lp826
I48
aI963
asI1255
(lp827
I49
aI964
asI1256
(lp828
I50
aI965
asI1257
(lp829
I51
aI966
asI1258
(lp830
I52
aI967
asI1259
(lp831
I53
aI968
asI1260
(lp832
I54
aI969
asI1261
(lp833
I55
aI970
asI1262
(lp834
I56
aI971
asI1263
(lp835
I57
aI960
asI1264
(lp836
I58
aI961
asI1265
(lp837
I59
aI962
asI1266
(lp838
I60
aI975
asI1267
(lp839
I61
aI976
asI1268
(lp840
I62
aI977
asI1269
(lp841
I63
aI978
asI1270
(lp842
I64
aI979
asI1271
(lp843
I65
aI980
asI1272
(lp844
I66
aI981
asI1273
(lp845
I67
aI982
asI1274
(lp846
I68
aI983
asI1275
(lp847
I69
aI972
asI1276
(lp848
I70
aI973
asI1277
(lp849
I71
aI974
asI1278
(lp850
I72
aI876
asI1279
(lp851
I73
aI877
asI1280
(lp852
I74
aI878
asI1281
(lp853
I75
aI879
asI1282
(lp854
I76
aI880
asI1283
(lp855
I77
aI881
asI1284
(lp856
I78
aI882
asI1285
(lp857
I79
aI883
asI1286
(lp858
I80
aI884
asI1287
(lp859
I81
aI885
asI1288
(lp860
I82
aI886
asI1289
(lp861
I83
aI887
asI1290
(lp862
I84
aI888
asI1291
(lp863
I85
aI889
asI1292
(lp864
I86
aI890
asI1293
(lp865
I87
aI891
asI1294
(lp866
I88
aI892
asI1295
(lp867
I89
aI893
asI1296
(lp868
I90
aI894
asI1297
(lp869
I91
aI895
asI1298
(lp870
I92
aI896
asI1299
(lp871
I93
aI897
asI1300
(lp872
I94
aI898
asI1301
(lp873
I95
aI899
asI1302
(lp874
I96
aI900
asI1303
(lp875
I97
aI901
asI1304
(lp876
I98
aI902
asI1305
(lp877
I99
aI903
asI1306
(lp878
I100
aI904
asI1307
(lp879
I101
aI905
asI1308
(lp880
I102
aI906
asI1309
(lp881
I103
aI907
asI1310
(lp882
I104
aI908
asI1311
(lp883
I105
aI909
asI1312
(lp884
I106
aI910
asI1313
(lp885
I107
aI911
asI1314
(lp886
I108
aI840
asI1315
(lp887
I109
aI841
asI1316
(lp888
I110
aI842
asI1317
(lp889
I111
aI843
asI1318
(lp890
I112
aI844
asI1319
(lp891
I113
aI845
asI1320
(lp892
I114
aI846
asI1321
(lp893
I115
aI847
asI1322
(lp894
I116
aI848
asI1323
(lp895
I117
aI849
asI1324
(lp896
I118
aI850
asI1325
(lp897
I119
aI851
asI1326
(lp898
I120
aI852
asI1327
(lp899
I121
aI853
asI1328
(lp900
I122
aI854
asI1329
(lp901
I123
aI855
asI1330
(lp902
I124
aI856
asI1331
(lp903
I125
aI857
asI1332
(lp904
I126
aI858
asI1333
(lp905
I127
aI859
asI1334
(lp906
I128
aI860
asI1335
(lp907
I129
aI861
asI1336
(lp908
I130
aI862
asI1337
(lp909
I131
aI863
asI1338
(lp910
I132
aI864
asI1339
(lp911
I133
aI865
asI1340
(lp912
I134
aI866
asI1341
(lp913
I135
aI867
asI1342
(lp914
I136
aI868
asI1343
(lp915
I137
aI869
asI1344
(lp916
I138
aI870
asI1345
(lp917
I139
aI871
asI1346
(lp918
I140
aI872
asI1347
(lp919
I141
aI873
asI1348
(lp920
I142
aI874
asI1349
(lp921
I143
aI875
asI1350
(lp922
I144
aI841
asI1351
(lp923
I145
aI842
asI1352
(lp924
I146
aI840
asI1353
(lp925
I147
aI844
asI1354
(lp926
I148
aI845
asI1355
(lp927
I149
aI843
asI1356
(lp928
I150
aI847
asI1357
(lp929
I151
aI848
asI1358
(lp930
I152
aI846
asI1359
(lp931
I153
aI850
asI1360
(lp932
I154
aI851
asI1361
(lp933
I155
aI849
asI1362
(lp934
I156
aI853
asI1363
(lp935
I157
aI854
asI1364
(lp936
I158
aI852
asI1365
(lp937
I159
aI856
asI1366
(lp938
I160
aI857
asI1367
(lp939
I161
aI855
asI1368
(lp940
I162
aI859
asI1369
(lp941
I163
aI860
asI1370
(lp942
I164
aI858
asI1371
(lp943
I165
aI862
asI1372
(lp944
I166
aI863
asI1373
(lp945
I167
aI861
asI1374
(lp946
I168
aI865
asI1375
(lp947
I169
aI866
asI1376
(lp948
I170
aI864
asI1377
(lp949
I171
aI868
asI1378
(lp950
I172
aI869
asI1379
(lp951
I173
aI867
asI1380
(lp952
I174
aI871
asI1381
(lp953
I175
aI872
asI1382
(lp954
I176
aI870
asI1383
(lp955
I177
aI874
asI1384
(lp956
I178
aI875
asI1385
(lp957
I179
aI873
asI1386
(lp958
I180
aI876
asI1387
(lp959
I181
aI877
asI1388
(lp960
I182
aI878
asI1389
(lp961
I183
aI879
asI1390
(lp962
I184
aI880
asI1391
(lp963
I185
aI881
asI1392
(lp964
I186
aI882
asI1393
(lp965
I187
aI883
asI1394
(lp966
I188
aI884
asI1395
(lp967
I189
aI885
asI1396
(lp968
I190
aI886
asI1397
(lp969
I191
aI887
asI1398
(lp970
I192
aI888
asI1399
(lp971
I193
aI889
asI1400
(lp972
I194
aI890
asI1401
(lp973
I195
aI891
asI1402
(lp974
I196
aI892
asI1403
(lp975
I197
aI893
asI1404
(lp976
I198
aI894
asI1405
(lp977
I199
aI895
asI1406
(lp978
I200
aI896
asI1407
(lp979
I201
aI897
asI1408
(lp980
I202
aI898
asI1409
(lp981
I203
aI899
asI1410
(lp982
I204
aI900
asI1411
(lp983
I205
aI901
asI1412
(lp984
I206
aI902
asI1413
(lp985
I207
aI903
asI1414
(lp986
I208
aI904
asI1415
(lp987
I209
aI905
asI1416
(lp988
I210
aI906
asI1417
(lp989
I211
aI907
asI1418
(lp990
I212
aI908
asI1419
(lp991
I213
aI909
asI1420
(lp992
I214
aI910
asI1421
(lp993
I215
aI911
asI1422
(lp994
I216
aI972
asI1423
(lp995
I217
aI973
asI1424
(lp996
I218
aI974
asI1425
(lp997
I219
aI975
asI1426
(lp998
I220
aI976
asI1427
(lp999
I221
aI977
asI1428
(lp1000
I222
aI978
asI1429
(lp1001
I223
aI979
asI1430
(lp1002
I224
aI980
asI1431
(lp1003
I225
aI981
asI1432
(lp1004
I226
aI982
asI1433
(lp1005
I227
aI983
asI1434
(lp1006
I228
aI948
asI1435
(lp1007
I229
aI949
asI1436
(lp1008
I230
aI950
asI1437
(lp1009
I231
aI951
asI1438
(lp1010
I232
aI952
asI1439
(lp1011
I233
aI953
asI1440
(lp1012
I234
aI954
asI1441
(lp1013
I235
aI955
asI1442
(lp1014
I236
aI956
asI1443
(lp1015
I237
aI957
asI1444
(lp1016
I238
aI958
asI1445
(lp1017
I239
aI959
asI1446
(lp1018
I240
aI960
asI1447
(lp1019
I241
aI961
asI1448
(lp1020
I242
aI962
asI1449
(lp1021
I243
aI963
asI1450
(lp1022
I244
aI964
asI1451
(lp1023
I245
aI965
asI1452
(lp1024
I246
aI966
asI1453
(lp1025
I247
aI967
asI1454
(lp1026
I248
aI968
asI1455
(lp1027
I249
aI969
asI1456
(lp1028
I250
aI970
asI1457
(lp1029
I251
aI971
asI1458
(lp1030
I252
aI924
asI1459
(lp1031
I253
aI925
asI1460
(lp1032
I254
aI926
asI1461
(lp1033
I255
aI927
asI1462
(lp1034
I256
aI928
asI1463
(lp1035
I257
aI929
asI1464
(lp1036
I258
aI930
asI1465
(lp1037
I259
aI931
asI1466
(lp1038
I260
aI932
asI1467
(lp1039
I261
aI933
asI1468
(lp1040
I262
aI934
asI1469
(lp1041
I263
aI935
asI1470
(lp1042
I264
aI936
asI1471
(lp1043
I265
aI937
asI1472
(lp1044
I266
aI938
asI1473
(lp1045
I267
aI939
asI1474
(lp1046
I268
aI940
asI1475
(lp1047
I269
aI941
asI1476
(lp1048
I270
aI942
asI1477
(lp1049
I271
aI943
asI1478
(lp1050
I272
aI944
asI1479
(lp1051
I273
aI945
asI1480
(lp1052
I274
aI946
asI1481
(lp1053
I275
aI947
asI1482
(lp1054
I276
aI912
asI1483
(lp1055
I277
aI913
asI1484
(lp1056
I278
aI914
asI1485
(lp1057
I279
aI915
asI1486
(lp1058
I280
aI916
asI1487
(lp1059
I281
aI917
asI1488
(lp1060
I282
aI918
asI1489
(lp1061
I283
aI919
asI1490
(lp1062
I284
aI920
asI1491
(lp1063
I285
aI921
asI1492
(lp1064
I286
aI922
asI1493
(lp1065
I287
aI923
asI1494
(lp1066
I0
aI840
asI1495
(lp1067
I1
aI841
asI1496
(lp1068
I2
aI842
asI1497
(lp1069
I3
aI843
asI1498
(lp1070
I4
aI844
asI1499
(lp1071
I5
aI845
asI1500
(lp1072
I6
aI846
asI1501
(lp1073
I7
aI847
asI1502
(lp1074
I8
aI848
asI1503
(lp1075
I9
aI849
asI1504
(lp1076
I10
aI850
asI1505
(lp1077
I11
aI851
asI1506
(lp1078
I12
aI852
asI1507
(lp1079
I13
aI853
asI1508
(lp1080
I14
aI854
asI1509
(lp1081
I15
aI855
asI1510
(lp1082
I16
aI856
asI1511
(lp1083
I17
aI857
asI1512
(lp1084
I18
aI858
asI1513
(lp1085
I19
aI859
asI1514
(lp1086
I20
aI860
asI1515
(lp1087
I21
aI861
asI1516
(lp1088
I22
aI862
asI1517
(lp1089
I23
aI863
asI1518
(lp1090
I24
aI864
asI1519
(lp1091
I25
aI865
asI1520
(lp1092
I26
aI866
asI1521
(lp1093
I27
aI867
asI1522
(lp1094
I28
aI868
asI1523
(lp1095
I29
aI869
asI1524
(lp1096
I30
aI870
asI1525
(lp1097
I31
aI871
asI1526
(lp1098
I32
aI872
asI1527
(lp1099
I33
aI873
asI1528
(lp1100
I34
aI874
asI1529
(lp1101
I35
aI875
asI1530
(lp1102
I36
aI876
asI1531
(lp1103
I37
aI877
asI1532
(lp1104
I38
aI878
asI1533
(lp1105
I39
aI879
asI1534
(lp1106
I40
aI880
asI1535
(lp1107
I41
aI881
asI1536
(lp1108
I42
aI882
asI1537
(lp1109
I43
aI883
asI1538
(lp1110
I44
aI884
asI1539
(lp1111
I45
aI885
asI1540
(lp1112
I46
aI886
asI1541
(lp1113
I47
aI887
asI1542
(lp1114
I48
aI888
asI1543
(lp1115
I49
aI889
asI1544
(lp1116
I50
aI890
asI1545
(lp1117
I51
aI891
asI1546
(lp1118
I52
aI892
asI1547
(lp1119
I53
aI893
asI1548
(lp1120
I54
aI894
asI1549
(lp1121
I55
aI895
asI1550
(lp1122
I56
aI896
asI1551
(lp1123
I57
aI897
asI1552
(lp1124
I58
aI898
asI1553
(lp1125
I59
aI899
asI1554
(lp1126
I60
aI900
asI1555
(lp1127
I61
aI901
asI1556
(lp1128
I62
aI902
asI1557
(lp1129
I63
aI903
asI1558
(lp1130
I64
aI904
asI1559
(lp1131
I65
aI905
asI1560
(lp1132
I66
aI906
asI1561
(lp1133
I67
aI907
asI1562
(lp1134
I68
aI908
asI1563
(lp1135
I69
aI909
asI1564
(lp1136
I70
aI910
asI1565
(lp1137
I71
aI911
asI1566
(lp1138
I72
aI912
asI1567
(lp1139
I73
aI913
asI1568
(lp1140
I74
aI914
asI1569
(lp1141
I75
aI915
asI1570
(lp1142
I76
aI916
asI1571
(lp1143
I77
aI917
asI1572
(lp1144
I78
aI918
asI1573
(lp1145
I79
aI919
asI1574
(lp1146
I80
aI920
asI1575
(lp1147
I81
aI921
asI1576
(lp1148
I82
aI922
asI1577
(lp1149
I83
aI923
asI1578
(lp1150
I84
aI924
asI1579
(lp1151
I85
aI925
asI1580
(lp1152
I86
aI926
asI1581
(lp1153
I87
aI927
asI1582
(lp1154
I88
aI928
asI1583
(lp1155
I89
aI929
asI1584
(lp1156
I90
aI930
asI1585
(lp1157
I91
aI931
asI1586
(lp1158
I92
aI932
asI1587
(lp1159
I93
aI933
asI1588
(lp1160
I94
aI934
asI1589
(lp1161
I95
aI935
asI1590
(lp1162
I96
aI936
asI1591
(lp1163
I97
aI937
asI1592
(lp1164
I98
aI938
asI1593
(lp1165
I99
aI939
asI1594
(lp1166
I100
aI940
asI1595
(lp1167
I101
aI941
asI1596
(lp1168
I102
aI942
asI1597
(lp1169
I103
aI943
asI1598
(lp1170
I104
aI944
asI1599
(lp1171
I105
aI945
asI1600
(lp1172
I106
aI946
asI1601
(lp1173
I107
aI947
asI1602
(lp1174
I109
aI948
asI1603
(lp1175
I110
aI949
asI1604
(lp1176
I108
aI950
asI1605
(lp1177
I112
aI951
asI1606
(lp1178
I113
aI952
asI1607
(lp1179
I111
aI953
asI1608
(lp1180
I115
aI954
asI1609
(lp1181
I116
aI955
asI1610
(lp1182
I114
aI956
asI1611
(lp1183
I118
aI957
asI1612
(lp1184
I119
aI958
asI1613
(lp1185
I117
aI959
asI1614
(lp1186
I121
aI960
asI1615
(lp1187
I122
aI961
asI1616
(lp1188
I120
aI962
asI1617
(lp1189
I124
aI963
asI1618
(lp1190
I125
aI964
asI1619
(lp1191
I123
aI965
asI1620
(lp1192
I127
aI966
asI1621
(lp1193
I128
aI967
asI1622
(lp1194
I126
aI968
asI1623
(lp1195
I130
aI969
asI1624
(lp1196
I131
aI970
asI1625
(lp1197
I129
aI971
asI1626
(lp1198
I133
aI972
asI1627
(lp1199
I134
aI973
asI1628
(lp1200
I132
aI974
asI1629
(lp1201
I136
aI975
asI1630
(lp1202
I137
aI976
asI1631
(lp1203
I135
aI977
asI1632
(lp1204
I139
aI978
asI1633
(lp1205
I140
aI979
asI1634
(lp1206
I138
aI980
asI1635
(lp1207
I142
aI981
asI1636
(lp1208
I143
aI982
asI1637
(lp1209
I141
aI983
asI1638
(lp1210
I146
aI912
asI1639
(lp1211
I144
aI913
asI1640
(lp1212
I145
aI914
asI1641
(lp1213
I149
aI915
asI1642
(lp1214
I147
aI916
asI1643
(lp1215
I148
aI917
asI1644
(lp1216
I152
aI918
asI1645
(lp1217
I150
aI919
asI1646
(lp1218
I151
aI920
asI1647
(lp1219
I155
aI921
asI1648
(lp1220
I153
aI922
asI1649
(lp1221
I154
aI923
asI1650
(lp1222
I158
aI924
asI1651
(lp1223
I156
aI925
asI1652
(lp1224
I157
aI926
asI1653
(lp1225
I161
aI927
asI1654
(lp1226
I159
aI928
asI1655
(lp1227
I160
aI929
asI1656
(lp1228
I164
aI930
asI1657
(lp1229
I162
aI931
asI1658
(lp1230
I163
aI932
asI1659
(lp1231
I167
aI933
asI1660
(lp1232
I165
aI934
asI1661
(lp1233
I166
aI935
asI1662
(lp1234
I170
aI936
asI1663
(lp1235
I168
aI937
asI1664
(lp1236
I169
aI938
asI1665
(lp1237
I173
aI939
asI1666
(lp1238
I171
aI940
asI1667
(lp1239
I172
aI941
asI1668
(lp1240
I176
aI942
asI1669
(lp1241
I174
aI943
asI1670
(lp1242
I175
aI944
asI1671
(lp1243
I179
aI945
asI1672
(lp1244
I177
aI946
asI1673
(lp1245
I178
aI947
asI1674
(lp1246
I180
aI948
asI1675
(lp1247
I181
aI949
asI1676
(lp1248
I182
aI950
asI1677
(lp1249
I183
aI951
asI1678
(lp1250
I184
aI952
asI1679
(lp1251
I185
aI953
asI1680
(lp1252
I186
aI954
asI1681
(lp1253
I187
aI955
asI1682
(lp1254
I188
aI956
asI1683
(lp1255
I189
aI957
asI1684
(lp1256
I190
aI958
asI1685
(lp1257
I191
aI959
asI1686
(lp1258
I192
aI960
asI1687
(lp1259
I193
aI961
asI1688
(lp1260
I194
aI962
asI1689
(lp1261
I195
aI963
asI1690
(lp1262
I196
aI964
asI1691
(lp1263
I197
aI965
asI1692
(lp1264
I198
aI966
asI1693
(lp1265
I199
aI967
asI1694
(lp1266
I200
aI968
asI1695
(lp1267
I201
aI969
asI1696
(lp1268
I202
aI970
asI1697
(lp1269
I203
aI971
asI1698
(lp1270
I204
aI972
asI1699
(lp1271
I205
aI973
asI1700
(lp1272
I206
aI974
asI1701
(lp1273
I207
aI975
asI1702
(lp1274
I208
aI976
asI1703
(lp1275
I209
aI977
asI1704
(lp1276
I210
aI978
asI1705
(lp1277
I211
aI979
asI1706
(lp1278
I212
aI980
asI1707
(lp1279
I213
aI981
asI1708
(lp1280
I214
aI982
asI1709
(lp1281
I215
aI983
asI1710
(lp1282
I216
aI841
asI1711
(lp1283
I217
aI842
asI1712
(lp1284
I219
aI844
asI1713
(lp1285
I220
aI845
asI1714
(lp1286
I222
aI847
asI1715
(lp1287
I223
aI848
asI1716
(lp1288
I225
aI850
asI1717
(lp1289
I226
aI851
asI1718
(lp1290
I228
aI853
asI1719
(lp1291
I229
aI854
asI1720
(lp1292
I231
aI856
asI1721
(lp1293
I232
aI857
asI1722
(lp1294
I234
aI859
asI1723
(lp1295
I235
aI860
asI1724
(lp1296
I237
aI862
asI1725
(lp1297
I238
aI863
asI1726
(lp1298
I240
aI865
asI1727
(lp1299
I241
aI866
asI1728
(lp1300
I243
aI868
asI1729
(lp1301
I244
aI869
asI1730
(lp1302
I246
aI871
asI1731
(lp1303
I247
aI872
asI1732
(lp1304
I249
aI874
asI1733
(lp1305
I250
aI875
asI1734
(lp1306
I252
aI876
asI1735
(lp1307
I253
aI877
asI1736
(lp1308
I254
aI878
asI1737
(lp1309
I255
aI879
asI1738
(lp1310
I256
aI880
asI1739
(lp1311
I257
aI881
asI1740
(lp1312
I258
aI882
asI1741
(lp1313
I259
aI883
asI1742
(lp1314
I260
aI884
asI1743
(lp1315
I261
aI885
asI1744
(lp1316
I262
aI886
asI1745
(lp1317
I263
aI887
asI1746
(lp1318
I264
aI888
asI1747
(lp1319
I265
aI889
asI1748
(lp1320
I266
aI890
asI1749
(lp1321
I267
aI891
asI1750
(lp1322
I268
aI892
asI1751
(lp1323
I269
aI893
asI1752
(lp1324
I270
aI894
asI1753
(lp1325
I271
aI895
asI1754
(lp1326
I272
aI896
asI1755
(lp1327
I273
aI897
asI1756
(lp1328
I274
aI898
asI1757
(lp1329
I275
aI899
asI1758
(lp1330
I276
aI900
asI1759
(lp1331
I277
aI901
asI1760
(lp1332
I278
aI902
asI1761
(lp1333
I279
aI903
asI1762
(lp1334
I280
aI904
asI1763
(lp1335
I281
aI905
asI1764
(lp1336
I282
aI906
asI1765
(lp1337
I283
aI907
asI1766
(lp1338
I284
aI908
asI1767
(lp1339
I285
aI909
asI1768
(lp1340
I286
aI910
asI1769
(lp1341
I287
aI911
asI1770
(lp1342
I144
aI841
asI1771
(lp1343
I145
aI842
asI1772
(lp1344
I147
aI844
asI1773
(lp1345
I148
aI845
asI1774
(lp1346
I150
aI847
asI1775
(lp1347
I151
aI848
asI1776
(lp1348
I153
aI850
asI1777
(lp1349
I154
aI851
asI1778
(lp1350
I156
aI853
asI1779
(lp1351
I157
aI854
asI1780
(lp1352
I159
aI856
asI1781
(lp1353
I160
aI857
asI1782
(lp1354
I162
aI859
asI1783
(lp1355
I163
aI860
asI1784
(lp1356
I165
aI862
asI1785
(lp1357
I166
aI863
asI1786
(lp1358
I168
aI865
asI1787
(lp1359
I169
aI866
asI1788
(lp1360
I171
aI868
asI1789
(lp1361
I172
aI869
asI1790
(lp1362
I174
aI871
asI1791
(lp1363
I175
aI872
asI1792
(lp1364
I177
aI874
asI1793
(lp1365
I178
aI875
asI1794
(lp1366
I180
aI876
asI1795
(lp1367
I181
aI877
asI1796
(lp1368
I182
aI878
asI1797
(lp1369
I183
aI879
asI1798
(lp1370
I184
aI880
asI1799
(lp1371
I185
aI881
asI1800
(lp1372
I186
aI882
asI1801
(lp1373
I187
aI883
asI1802
(lp1374
I188
aI884
asI1803
(lp1375
I189
aI885
asI1804
(lp1376
I190
aI886
asI1805
(lp1377
I191
aI887
asI1806
(lp1378
I192
aI888
asI1807
(lp1379
I193
aI889
asI1808
(lp1380
I194
aI890
asI1809
(lp1381
I195
aI891
asI1810
(lp1382
I196
aI892
asI1811
(lp1383
I197
aI893
asI1812
(lp1384
I198
aI894
asI1813
(lp1385
I199
aI895
asI1814
(lp1386
I200
aI896
asI1815
(lp1387
I201
aI897
asI1816
(lp1388
I202
aI898
asI1817
(lp1389
I203
aI899
asI1818
(lp1390
I204
aI900
asI1819
(lp1391
I205
aI901
asI1820
(lp1392
I206
aI902
asI1821
(lp1393
I207
aI903
asI1822
(lp1394
I208
aI904
asI1823
(lp1395
I209
aI905
asI1824
(lp1396
I210
aI906
asI1825
(lp1397
I211
aI907
asI1826
(lp1398
I212
aI908
asI1827
(lp1399
I213
aI909
asI1828
(lp1400
I214
aI910
asI1829
(lp1401
I215
aI911
asI1830
(lp1402
I252
aI924
asI1831
(lp1403
I253
aI925
asI1832
(lp1404
I254
aI926
asI1833
(lp1405
I255
aI927
asI1834
(lp1406
I256
aI928
asI1835
(lp1407
I257
aI929
asI1836
(lp1408
I258
aI930
asI1837
(lp1409
I259
aI931
asI1838
(lp1410
I260
aI932
asI1839
(lp1411
I261
aI933
asI1840
(lp1412
I262
aI934
asI1841
(lp1413
I263
aI935
asI1842
(lp1414
I264
aI936
asI1843
(lp1415
I265
aI937
asI1844
(lp1416
I266
aI938
asI1845
(lp1417
I267
aI939
asI1846
(lp1418
I268
aI940
asI1847
(lp1419
I269
aI941
asI1848
(lp1420
I270
aI942
asI1849
(lp1421
I271
aI943
asI1850
(lp1422
I272
aI944
asI1851
(lp1423
I273
aI945
asI1852
(lp1424
I274
aI946
asI1853
(lp1425
I275
aI947
asI1854
(lp1426
I228
aI948
asI1855
(lp1427
I229
aI949
asI1856
(lp1428
I230
aI950
asI1857
(lp1429
I231
aI951
asI1858
(lp1430
I232
aI952
asI1859
(lp1431
I233
aI953
asI1860
(lp1432
I234
aI954
asI1861
(lp1433
I235
aI955
asI1862
(lp1434
I236
aI956
asI1863
(lp1435
I237
aI957
asI1864
(lp1436
I238
aI958
asI1865
(lp1437
I239
aI959
asI1866
(lp1438
I240
aI960
asI1867
(lp1439
I241
aI961
asI1868
(lp1440
I242
aI962
asI1869
(lp1441
I243
aI963
asI1870
(lp1442
I244
aI964
asI1871
(lp1443
I245
aI965
asI1872
(lp1444
I246
aI966
asI1873
(lp1445
I247
aI967
asI1874
(lp1446
I248
aI968
asI1875
(lp1447
I249
aI969
asI1876
(lp1448
I250
aI970
asI1877
(lp1449
I251
aI971
asI1878
(lp1450
I3
aI912
asI1879
(lp1451
I4
aI913
asI1880
(lp1452
I5
aI914
asI1881
(lp1453
I6
aI915
asI1882
(lp1454
I7
aI916
asI1883
(lp1455
I8
aI917
asI1884
(lp1456
I9
aI918
asI1885
(lp1457
I10
aI919
asI1886
(lp1458
I11
aI920
asI1887
(lp1459
I15
aI924
asI1888
(lp1460
I16
aI925
asI1889
(lp1461
I17
aI926
asI1890
(lp1462
I18
aI927
asI1891
(lp1463
I19
aI928
asI1892
(lp1464
I20
aI929
asI1893
(lp1465
I21
aI930
asI1894
(lp1466
I22
aI931
asI1895
(lp1467
I23
aI932
asI1896
(lp1468
I27
aI936
asI1897
(lp1469
I28
aI937
asI1898
(lp1470
I29
aI938
asI1899
(lp1471
I30
aI939
asI1900
(lp1472
I31
aI940
asI1901
(lp1473
I32
aI941
asI1902
(lp1474
I33
aI942
asI1903
(lp1475
I34
aI943
asI1904
(lp1476
I35
aI944
asI1905
(lp1477
I36
aI951
asI1906
(lp1478
I37
aI952
asI1907
(lp1479
I38
aI953
asI1908
(lp1480
I39
aI954
asI1909
(lp1481
I40
aI955
asI1910
(lp1482
I41
aI956
asI1911
(lp1483
I42
aI957
asI1912
(lp1484
I43
aI958
asI1913
(lp1485
I44
aI959
asI1914
(lp1486
I48
aI963
asI1915
(lp1487
I49
aI964
asI1916
(lp1488
I50
aI965
asI1917
(lp1489
I51
aI966
asI1918
(lp1490
I52
aI967
asI1919
(lp1491
I53
aI968
asI1920
(lp1492
I54
aI969
asI1921
(lp1493
I55
aI970
asI1922
(lp1494
I56
aI971
asI1923
(lp1495
I60
aI975
asI1924
(lp1496
I61
aI976
asI1925
(lp1497
I62
aI977
asI1926
(lp1498
I63
aI978
asI1927
(lp1499
I64
aI979
asI1928
(lp1500
I65
aI980
asI1929
(lp1501
I66
aI981
asI1930
(lp1502
I67
aI982
asI1931
(lp1503
I68
aI983
asI1932
(lp1504
I108
aI840
asI1933
(lp1505
I109
aI841
asI1934
(lp1506
I110
aI842
asI1935
(lp1507
I111
aI843
asI1936
(lp1508
I112
aI844
asI1937
(lp1509
I113
aI845
asI1938
(lp1510
I114
aI846
asI1939
(lp1511
I115
aI847
asI1940
(lp1512
I116
aI848
asI1941
(lp1513
I117
aI849
asI1942
(lp1514
I118
aI850
asI1943
(lp1515
I119
aI851
asI1944
(lp1516
I120
aI852
asI1945
(lp1517
I121
aI853
asI1946
(lp1518
I122
aI854
asI1947
(lp1519
I123
aI855
asI1948
(lp1520
I124
aI856
asI1949
(lp1521
I125
aI857
asI1950
(lp1522
I126
aI858
asI1951
(lp1523
I127
aI859
asI1952
(lp1524
I128
aI860
asI1953
(lp1525
I129
aI861
asI1954
(lp1526
I130
aI862
asI1955
(lp1527
I131
aI863
asI1956
(lp1528
I132
aI864
asI1957
(lp1529
I133
aI865
asI1958
(lp1530
I134
aI866
asI1959
(lp1531
I135
aI867
asI1960
(lp1532
I136
aI868
asI1961
(lp1533
I137
aI869
asI1962
(lp1534
I138
aI870
asI1963
(lp1535
I139
aI871
asI1964
(lp1536
I140
aI872
asI1965
(lp1537
I141
aI873
asI1966
(lp1538
I142
aI874
asI1967
(lp1539
I143
aI875
asI1968
(lp1540
I72
aI876
asI1969
(lp1541
I73
aI877
asI1970
(lp1542
I74
aI878
asI1971
(lp1543
I75
aI879
asI1972
(lp1544
I76
aI880
asI1973
(lp1545
I77
aI881
asI1974
(lp1546
I78
aI882
asI1975
(lp1547
I79
aI883
asI1976
(lp1548
I80
aI884
asI1977
(lp1549
I81
aI885
asI1978
(lp1550
I82
aI886
asI1979
(lp1551
I83
aI887
asI1980
(lp1552
I84
aI888
asI1981
(lp1553
I85
aI889
asI1982
(lp1554
I86
aI890
asI1983
(lp1555
I87
aI891
asI1984
(lp1556
I88
aI892
asI1985
(lp1557
I89
aI893
asI1986
(lp1558
I90
aI894
asI1987
(lp1559
I91
aI895
asI1988
(lp1560
I92
aI896
asI1989
(lp1561
I93
aI897
asI1990
(lp1562
I94
aI898
asI1991
(lp1563
I95
aI899
asI1992
(lp1564
I96
aI900
asI1993
(lp1565
I97
aI901
asI1994
(lp1566
I98
aI902
asI1995
(lp1567
I99
aI903
asI1996
(lp1568
I100
aI904
asI1997
(lp1569
I101
aI905
asI1998
(lp1570
I102
aI906
asI1999
(lp1571
I103
aI907
asI2000
(lp1572
I104
aI908
asI2001
(lp1573
I105
aI909
asI2002
(lp1574
I106
aI910
asI2003
(lp1575
I107
aI911
asI2004
(lp1576
I0
aI132
asI2005
(lp1577
I1
aI133
asI2006
(lp1578
I2
aI134
asI2007
(lp1579
I3
aI135
asI2008
(lp1580
I4
aI136
asI2009
(lp1581
I5
aI137
asI2010
(lp1582
I6
aI138
asI2011
(lp1583
I7
aI139
asI2012
(lp1584
I8
aI140
asI2013
(lp1585
I9
aI141
asI2014
(lp1586
I10
aI142
asI2015
(lp1587
I11
aI143
asI2016
(lp1588
I60
aI72
asI2017
(lp1589
I61
aI73
asI2018
(lp1590
I62
aI74
asI2019
(lp1591
I63
aI75
asI2020
(lp1592
I64
aI76
asI2021
(lp1593
I65
aI77
asI2022
(lp1594
I66
aI78
asI2023
(lp1595
I67
aI79
asI2024
(lp1596
I68
aI80
asI2025
(lp1597
I69
aI81
asI2026
(lp1598
I70
aI82
asI2027
(lp1599
I71
aI83
asI2028
(lp1600
I108
aI950
asI2029
(lp1601
I38
aI108
asI2030
(lp1602
I111
aI953
asI2031
(lp1603
I41
aI111
asI2032
(lp1604
I114
aI956
asI2033
(lp1605
I44
aI114
asI2034
(lp1606
I117
aI959
asI2035
(lp1607
I47
aI117
asI2036
(lp1608
I120
aI962
asI2037
(lp1609
I50
aI120
asI2038
(lp1610
I123
aI965
asI2039
(lp1611
I53
aI123
asI2040
(lp1612
I126
aI968
asI2041
(lp1613
I56
aI126
asI2042
(lp1614
I129
aI971
asI2043
(lp1615
I59
aI129
asI2044
(lp1616
I132
aI974
asI2045
(lp1617
I62
aI132
asI2046
(lp1618
I135
aI977
asI2047
(lp1619
I65
aI135
asI2048
(lp1620
I138
aI980
asI2049
(lp1621
I68
aI138
asI2050
(lp1622
I141
aI983
asI2051
(lp1623
I71
aI141
asI2052
(lp1624
I146
aI912
asI2053
(lp1625
I146
aI252
asI2054
(lp1626
I149
aI915
asI2055
(lp1627
I149
aI255
asI2056
(lp1628
I152
aI918
asI2057
(lp1629
I152
aI258
asI2058
(lp1630
I155
aI921
asI2059
(lp1631
I155
aI261
asI2060
(lp1632
I158
aI924
asI2061
(lp1633
I158
aI264
asI2062
(lp1634
I161
aI927
asI2063
(lp1635
I161
aI267
asI2064
(lp1636
I164
aI930
asI2065
(lp1637
I164
aI270
asI2066
(lp1638
I167
aI933
asI2067
(lp1639
I167
aI273
asI2068
(lp1640
I170
aI936
asI2069
(lp1641
I170
aI276
asI2070
(lp1642
I173
aI939
asI2071
(lp1643
I173
aI279
asI2072
(lp1644
I176
aI942
asI2073
(lp1645
I176
aI282
asI2074
(lp1646
I179
aI945
asI2075
(lp1647
I179
aI285
asI2076
(lp1648
I153
aI216
asI2077
(lp1649
I154
aI217
asI2078
(lp1650
I155
aI218
asI2079
(lp1651
I165
aI228
asI2080
(lp1652
I166
aI229
asI2081
(lp1653
I167
aI230
asI2082
(lp1654
I177
aI240
asI2083
(lp1655
I178
aI241
asI2084
(lp1656
I179
aI242
asI2085
(lp1657
I180
aI261
asI2086
(lp1658
I181
aI262
asI2087
(lp1659
I182
aI263
asI2088
(lp1660
I192
aI273
asI2089
(lp1661
I193
aI274
asI2090
(lp1662
I194
aI275
asI2091
(lp1663
I204
aI285
asI2092
(lp1664
I205
aI286
asI2093
(lp1665
I206
aI287
asI2094
(lp1666
I218
aI840
asI2095
(lp1667
I146
aI840
asI2096
(lp1668
I221
aI843
asI2097
(lp1669
I149
aI843
asI2098
(lp1670
I224
aI846
asI2099
(lp1671
I152
aI846
asI2100
(lp1672
I227
aI849
asI2101
(lp1673
I155
aI849
asI2102
(lp1674
I230
aI852
asI2103
(lp1675
I158
aI852
asI2104
(lp1676
I233
aI855
asI2105
(lp1677
I161
aI855
asI2106
(lp1678
I236
aI858
asI2107
(lp1679
I164
aI858
asI2108
(lp1680
I239
aI861
asI2109
(lp1681
I167
aI861
asI2110
(lp1682
I242
aI864
asI2111
(lp1683
I170
aI864
asI2112
(lp1684
I245
aI867
asI2113
(lp1685
I173
aI867
asI2114
(lp1686
I248
aI870
asI2115
(lp1687
I176
aI870
asI2116
(lp1688
I251
aI873
asI2117
(lp1689
I179
aI873
asI2118
(lp1690
I276
aI912
asI2119
(lp1691
I277
aI913
asI2120
(lp1692
I278
aI914
asI2121
(lp1693
I279
aI915
asI2122
(lp1694
I280
aI916
asI2123
(lp1695
I281
aI917
asI2124
(lp1696
I282
aI918
asI2125
(lp1697
I283
aI919
asI2126
(lp1698
I284
aI920
asI2127
(lp1699
I285
aI921
asI2128
(lp1700
I0
aI921
asI2129
(lp1701
I286
aI922
asI2130
(lp1702
I1
aI922
asI2131
(lp1703
I287
aI923
asI2132
(lp1704
I2
aI923
asI2133
(lp1705
I12
aI933
asI2134
(lp1706
I13
aI934
asI2135
(lp1707
I14
aI935
asI2136
(lp1708
I24
aI945
asI2137
(lp1709
I25
aI946
asI2138
(lp1710
I26
aI947
asI2139
(lp1711
I45
aI948
asI2140
(lp1712
I46
aI949
asI2141
(lp1713
I47
aI950
asI2142
(lp1714
I57
aI960
asI2143
(lp1715
I58
aI961
asI2144
(lp1716
I59
aI962
asI2145
(lp1717
I69
aI972
asI2146
(lp1718
I216
aI972
asI2147
(lp1719
I70
aI973
asI2148
(lp1720
I217
aI973
asI2149
(lp1721
I71
aI974
asI2150
(lp1722
I218
aI974
asI2151
(lp1723
I219
aI975
asI2152
(lp1724
I220
aI976
asI2153
(lp1725
I221
aI977
asI2154
(lp1726
I222
aI978
asI2155
(lp1727
I223
aI979
asI2156
(lp1728
I224
aI980
asI2157
(lp1729
I225
aI981
asI2158
(lp1730
I226
aI982
asI2159
(lp1731
I227
aI983
as.