ccollections
defaultdict
p0
(c__builtin__
list
p1
tp2
Rp3
I0
(lp4
I1728
aI1944
asI1
(lp5
I1729
aI1945
asI2
(lp6
I1730
aI1946
asI3
(lp7
I1731
aI1947
asI4
(lp8
I1732
aI1948
asI5
(lp9
I1733
aI1949
asI6
(lp10
I1734
aI1950
asI7
(lp11
I1735
aI1951
asI8
(lp12
I1736
aI1952
asI9
(lp13
I1737
aI1953
asI10
(lp14
I1738
aI1954
asI11
(lp15
I1739
aI1955
asI12
(lp16
I1740
aI1956
asI13
(lp17
I1741
aI1957
asI14
(lp18
I1742
aI1958
asI15
(lp19
I1743
aI1959
asI16
(lp20
I1744
aI1960
asI17
(lp21
I1745
aI1961
asI18
(lp22
I1746
aI1962
asI19
(lp23
I1747
aI1963
asI20
(lp24
I1748
aI1964
asI21
(lp25
I1749
aI1965
asI22
(lp26
I1750
aI1966
asI23
(lp27
I1751
aI1967
asI24
(lp28
I1752
aI1968
asI25
(lp29
I1753
aI1969
asI26
(lp30
I1754
aI1970
asI27
(lp31
I1755
aI1971
asI28
(lp32
I1756
aI1972
asI29
(lp33
I1757
aI1973
asI30
(lp34
I1758
aI1974
asI31
(lp35
I1759
aI1975
asI32
(lp36
I1760
aI1976
asI33
(lp37
I1761
aI1977
asI34
(lp38
I1762
aI1978
asI35
(lp39
I1763
aI1979
asI36
(lp40
I1764
aI1980
asI37
(lp41
I1765
aI1981
asI38
(lp42
I1766
aI1982
asI39
(lp43
I1767
aI1983
asI40
(lp44
I1768
aI1984
asI41
(lp45
I1769
aI1985
asI42
(lp46
I1770
aI1986
asI43
(lp47
I1771
aI1987
asI44
(lp48
I1772
aI1988
asI45
(lp49
I1773
aI1989
asI46
(lp50
I1774
aI1990
asI47
(lp51
I1775
aI1991
asI48
(lp52
I1776
aI1992
asI49
(lp53
I1777
aI1993
asI50
(lp54
I1778
aI1994
asI51
(lp55
I1779
aI1995
asI52
(lp56
I1780
aI1996
asI53
(lp57
I1781
aI1997
asI54
(lp58
I1782
aI1998
asI55
(lp59
I1783
aI1999
asI56
(lp60
I1784
aI2000
asI57
(lp61
I1785
aI2001
asI58
(lp62
I1786
aI2002
asI59
(lp63
I1787
aI2003
asI60
(lp64
I1788
aI2004
asI61
(lp65
I1789
aI2005
asI62
(lp66
I1790
aI2006
asI63
(lp67
I1791
aI2007
asI64
(lp68
I1792
aI2008
asI65
(lp69
I1793
aI2009
asI66
(lp70
I1794
aI2010
asI67
(lp71
I1795
aI2011
asI68
(lp72
I1796
aI2012
asI69
(lp73
I1797
aI2013
asI70
(lp74
I1798
aI2014
asI71
(lp75
I1799
aI2015
asI72
(lp76
I1800
aI2016
asI73
(lp77
I1801
aI2017
asI74
(lp78
I1802
aI2018
asI75
(lp79
I1803
aI2019
asI76
(lp80
I1804
aI2020
asI77
(lp81
I1805
aI2021
asI78
(lp82
I1806
aI2022
asI79
(lp83
I1807
aI2023
asI80
(lp84
I1808
aI2024
asI81
(lp85
I1809
aI2025
asI82
(lp86
I1810
aI2026
asI83
(lp87
I1811
aI2027
asI84
(lp88
I1812
aI2028
asI85
(lp89
I1813
aI2029
asI86
(lp90
I1814
aI2030
asI87
(lp91
I1815
aI2031
asI88
(lp92
I1816
aI2032
asI89
(lp93
I1817
aI2033
asI90
(lp94
I1818
aI2034
asI91
(lp95
I1819
aI2035
asI92
(lp96
I1820
aI2036
asI93
(lp97
I1821
aI2037
asI94
(lp98
I1822
aI2038
asI95
(lp99
I1823
aI2039
asI96
(lp100
I1824
aI2040
asI97
(lp101
I1825
aI2041
asI98
(lp102
I1826
aI2042
asI99
(lp103
I1827
aI2043
asI100
(lp104
I1828
aI2044
asI101
(lp105
I1829
aI2045
asI102
(lp106
I1830
aI2046
asI103
(lp107
I1831
aI2047
asI104
(lp108
I1832
aI2048
asI105
(lp109
I1833
aI2049
asI106
(lp110
I1834
aI2050
asI107
(lp111
I1835
aI2051
asI108
(lp112
I1836
aI2052
asI109
(lp113
I1837
aI2053
asI110
(lp114
I1838
aI2054
asI111
(lp115
I1839
aI2055
asI112
(lp116
I1840
aI2056
asI113
(lp117
I1841
aI2057
asI114
(lp118
I1842
aI2058
asI115
(lp119
I1843
aI2059
asI116
(lp120
I1844
aI2060
asI117
(lp121
I1845
aI2061
asI118
(lp122
I1846
aI2062
asI119
(lp123
I1847
aI2063
asI120
(lp124
I1848
aI2064
asI121
(lp125
I1849
aI2065
asI122
(lp126
I1850
aI2066
asI123
(lp127
I1851
aI2067
asI124
(lp128
I1852
aI2068
asI125
(lp129
I1853
aI2069
asI126
(lp130
I1854
aI2070
asI127
(lp131
I1855
aI2071
asI128
(lp132
I1856
aI2072
asI129
(lp133
I1857
aI2073
asI130
(lp134
I1858
aI2074
asI131
(lp135
I1859
aI2075
asI132
(lp136
I1860
aI2076
asI133
(lp137
I1861
aI2077
asI134
(lp138
I1862
aI2078
asI135
(lp139
I1863
aI2079
asI136
(lp140
I1864
aI2080
asI137
(lp141
I1865
aI2081
asI138
(lp142
I1866
aI2082
asI139
(lp143
I1867
aI2083
asI140
(lp144
I1868
aI2084
asI141
(lp145
I1869
aI2085
asI142
(lp146
I1870
aI2086
asI143
(lp147
I1871
aI2087
asI144
(lp148
I1872
aI2088
asI145
(lp149
I1873
aI2089
asI146
(lp150
I1874
aI2090
asI147
(lp151
I1875
aI2091
asI148
(lp152
I1876
aI2092
asI149
(lp153
I1877
aI2093
asI150
(lp154
I1878
aI2094
asI151
(lp155
I1879
aI2095
asI152
(lp156
I1880
aI2096
asI153
(lp157
I1881
aI2097
asI154
(lp158
I1882
aI2098
asI155
(lp159
I1883
aI2099
asI156
(lp160
I1884
aI2100
asI157
(lp161
I1885
aI2101
asI158
(lp162
I1886
aI2102
asI159
(lp163
I1887
aI2103
asI160
(lp164
I1888
aI2104
asI161
(lp165
I1889
aI2105
asI162
(lp166
I1890
aI2106
asI163
(lp167
I1891
aI2107
asI164
(lp168
I1892
aI2108
asI165
(lp169
I1893
aI2109
asI166
(lp170
I1894
aI2110
asI167
(lp171
I1895
aI2111
asI168
(lp172
I1896
aI2112
asI169
(lp173
I1897
aI2113
asI170
(lp174
I1898
aI2114
asI171
(lp175
I1899
aI2115
asI172
(lp176
I1900
aI2116
asI173
(lp177
I1901
aI2117
asI174
(lp178
I1902
aI2118
asI175
(lp179
I1903
aI2119
asI176
(lp180
I1904
aI2120
asI177
(lp181
I1905
aI2121
asI178
(lp182
I1906
aI2122
asI179
(lp183
I1907
aI2123
asI180
(lp184
I1908
aI2124
asI181
(lp185
I1909
aI2125
asI182
(lp186
I1910
aI2126
asI183
(lp187
I1911
aI2127
asI184
(lp188
I1912
aI2128
asI185
(lp189
I1913
aI2129
asI186
(lp190
I1914
aI2130
asI187
(lp191
I1915
aI2131
asI188
(lp192
I1916
aI2132
asI189
(lp193
I1917
aI2133
asI190
(lp194
I1918
aI2134
asI191
(lp195
I1919
aI2135
asI192
(lp196
I1920
aI2136
asI193
(lp197
I1921
aI2137
asI194
(lp198
I1922
aI2138
asI195
(lp199
I1923
aI2139
asI196
(lp200
I1924
aI2140
asI197
(lp201
I1925
aI2141
asI198
(lp202
I1926
aI2142
asI199
(lp203
I1927
aI2143
asI200
(lp204
I1928
aI2144
asI201
(lp205
I1929
aI2145
asI202
(lp206
I1930
aI2146
asI203
(lp207
I1931
aI2147
asI204
(lp208
I1932
aI2148
asI205
(lp209
I1933
aI2149
asI206
(lp210
I1934
aI2150
asI207
(lp211
I1935
aI2151
asI208
(lp212
I1936
aI2152
asI209
(lp213
I1937
aI2153
asI210
(lp214
I1938
aI2154
asI211
(lp215
I1939
aI2155
asI212
(lp216
I1940
aI2156
asI213
(lp217
I1941
aI2157
asI214
(lp218
I1942
aI2158
asI215
(lp219
I1943
aI2159
asI216
(lp220
I1728
aI1944
asI217
(lp221
I1729
aI1945
asI218
(lp222
I1730
aI1946
asI219
(lp223
I1731
aI1947
asI220
(lp224
I1732
aI1948
asI221
(lp225
I1733
aI1949
asI222
(lp226
I1734
aI1950
asI223
(lp227
I1735
aI1951
asI224
(lp228
I1736
aI1952
asI225
(lp229
I1737
aI1953
asI226
(lp230
I1738
aI1954
asI227
(lp231
I1739
aI1955
asI228
(lp232
I1740
aI1956
asI229
(lp233
I1741
aI1957
asI230
(lp234
I1742
aI1958
asI231
(lp235
I1743
aI1959
asI232
(lp236
I1744
aI1960
asI233
(lp237
I1745
aI1961
asI234
(lp238
I1746
aI1962
asI235
(lp239
I1747
aI1963
asI236
(lp240
I1748
aI1964
asI237
(lp241
I1749
aI1965
asI238
(lp242
I1750
aI1966
asI239
(lp243
I1751
aI1967
asI240
(lp244
I1752
aI1968
asI241
(lp245
I1753
aI1969
asI242
(lp246
I1754
aI1970
asI243
(lp247
I1755
aI1971
asI244
(lp248
I1756
aI1972
asI245
(lp249
I1757
aI1973
asI246
(lp250
I1758
aI1974
asI247
(lp251
I1759
aI1975
asI248
(lp252
I1760
aI1976
asI249
(lp253
I1761
aI1977
asI250
(lp254
I1762
aI1978
asI251
(lp255
I1763
aI1979
asI252
(lp256
I1764
aI1980
asI253
(lp257
I1765
aI1981
asI254
(lp258
I1766
aI1982
asI255
(lp259
I1767
aI1983
asI256
(lp260
I1768
aI1984
asI257
(lp261
I1769
aI1985
asI258
(lp262
I1770
aI1986
asI259
(lp263
I1771
aI1987
asI260
(lp264
I1772
aI1988
asI261
(lp265
I1773
aI1989
asI262
(lp266
I1774
aI1990
asI263
(lp267
I1775
aI1991
asI264
(lp268
I1776
aI1992
asI265
(lp269
I1777
aI1993
asI266
(lp270
I1778
aI1994
asI267
(lp271
I1779
aI1995
asI268
(lp272
I1780
aI1996
asI269
(lp273
I1781
aI1997
asI270
(lp274
I1782
aI1998
asI271
(lp275
I1783
aI1999
asI272
(lp276
I1784
aI2000
asI273
(lp277
I1785
aI2001
asI274
(lp278
I1786
aI2002
asI275
(lp279
I1787
aI2003
asI276
(lp280
I1788
aI2004
asI277
(lp281
I1789
aI2005
asI278
(lp282
I1790
aI2006
asI279
(lp283
I1791
aI2007
asI280
(lp284
I1792
aI2008
asI281
(lp285
I1793
aI2009
asI282
(lp286
I1794
aI2010
asI283
(lp287
I1795
aI2011
asI284
(lp288
I1796
aI2012
asI285
(lp289
I1797
aI2013
asI286
(lp290
I1798
aI2014
asI287
(lp291
I1799
aI2015
asI288
(lp292
I1800
aI2016
asI289
(lp293
I1801
aI2017
asI290
(lp294
I1802
aI2018
asI291
(lp295
I1803
aI2019
asI292
(lp296
I1804
aI2020
asI293
(lp297
I1805
aI2021
asI294
(lp298
I1806
aI2022
asI295
(lp299
I1807
aI2023
asI296
(lp300
I1808
aI2024
asI297
(lp301
I1809
aI2025
asI298
(lp302
I1810
aI2026
asI299
(lp303
I1811
aI2027
asI300
(lp304
I1812
aI2028
asI301
(lp305
I1813
aI2029
asI302
(lp306
I1814
aI2030
asI303
(lp307
I1815
aI2031
asI304
(lp308
I1816
aI2032
asI305
(lp309
I1817
aI2033
asI306
(lp310
I1818
aI2034
asI307
(lp311
I1819
aI2035
asI308
(lp312
I1820
aI2036
asI309
(lp313
I1821
aI2037
asI310
(lp314
I1822
aI2038
asI311
(lp315
I1823
aI2039
asI312
(lp316
I1824
aI2040
asI313
(lp317
I1825
aI2041
asI314
(lp318
I1826
aI2042
asI315
(lp319
I1827
aI2043
asI316
(lp320
I1828
aI2044
asI317
(lp321
I1829
aI2045
asI318
(lp322
I1830
aI2046
asI319
(lp323
I1831
aI2047
asI320
(lp324
I1832
aI2048
asI321
(lp325
I1833
aI2049
asI322
(lp326
I1834
aI2050
asI323
(lp327
I1835
aI2051
asI324
(lp328
I1836
aI2052
asI325
(lp329
I1837
aI2053
asI326
(lp330
I1838
aI2054
asI327
(lp331
I1839
aI2055
asI328
(lp332
I1840
aI2056
asI329
(lp333
I1841
aI2057
asI330
(lp334
I1842
aI2058
asI331
(lp335
I1843
aI2059
asI332
(lp336
I1844
aI2060
asI333
(lp337
I1845
aI2061
asI334
(lp338
I1846
aI2062
asI335
(lp339
I1847
aI2063
asI336
(lp340
I1848
aI2064
asI337
(lp341
I1849
aI2065
asI338
(lp342
I1850
aI2066
asI339
(lp343
I1851
aI2067
asI340
(lp344
I1852
aI2068
asI341
(lp345
I1853
aI2069
asI342
(lp346
I1854
aI2070
asI343
(lp347
I1855
aI2071
asI344
(lp348
I1856
aI2072
asI345
(lp349
I1857
aI2073
asI346
(lp350
I1858
aI2074
asI347
(lp351
I1859
aI2075
asI348
(lp352
I1860
aI2076
asI349
(lp353
I1861
aI2077
asI350
(lp354
I1862
aI2078
asI351
(lp355
I1863
aI2079
asI352
(lp356
I1864
aI2080
asI353
(lp357
I1865
aI2081
asI354
(lp358
I1866
aI2082
asI355
(lp359
I1867
aI2083
asI356
(lp360
I1868
aI2084
asI357
(lp361
I1869
aI2085
asI358
(lp362
I1870
aI2086
asI359
(lp363
I1871
aI2087
asI360
(lp364
I1872
aI2088
asI361
(lp365
I1873
aI2089
asI362
(lp366
I1874
aI2090
asI363
(lp367
I1875
aI2091
asI364
(lp368
I1876
aI2092
asI365
(lp369
I1877
aI2093
asI366
(lp370
I1878
aI2094
asI367
(lp371
I1879
aI2095
asI368
(lp372
I1880
aI2096
asI369
(lp373
I1881
aI2097
asI370
(lp374
I1882
aI2098
asI371
(lp375
I1883
aI2099
asI372
(lp376
I1884
aI2100
asI373
(lp377
I1885
aI2101
asI374
(lp378
I1886
aI2102
asI375
(lp379
I1887
aI2103
asI376
(lp380
I1888
aI2104
asI377
(lp381
I1889
aI2105
asI378
(lp382
I1890
aI2106
asI379
(lp383
I1891
aI2107
asI380
(lp384
I1892
aI2108
asI381
(lp385
I1893
aI2109
asI382
(lp386
I1894
aI2110
asI383
(lp387
I1895
aI2111
asI384
(lp388
I1896
aI2112
asI385
(lp389
I1897
aI2113
asI386
(lp390
I1898
aI2114
asI387
(lp391
I1899
aI2115
asI388
(lp392
I1900
aI2116
asI389
(lp393
I1901
aI2117
asI390
(lp394
I1902
aI2118
asI391
(lp395
I1903
aI2119
asI392
(lp396
I1904
aI2120
asI393
(lp397
I1905
aI2121
asI394
(lp398
I1906
aI2122
asI395
(lp399
I1907
aI2123
asI396
(lp400
I1908
aI2124
asI397
(lp401
I1909
aI2125
asI398
(lp402
I1910
aI2126
asI399
(lp403
I1911
aI2127
asI400
(lp404
I1912
aI2128
asI401
(lp405
I1913
aI2129
asI402
(lp406
I1914
aI2130
asI403
(lp407
I1915
aI2131
asI404
(lp408
I1916
aI2132
asI405
(lp409
I1917
aI2133
asI406
(lp410
I1918
aI2134
asI407
(lp411
I1919
aI2135
asI408
(lp412
I1920
aI2136
asI409
(lp413
I1921
aI2137
asI410
(lp414
I1922
aI2138
asI411
(lp415
I1923
aI2139
asI412
(lp416
I1924
aI2140
asI413
(lp417
I1925
aI2141
asI414
(lp418
I1926
aI2142
asI415
(lp419
I1927
aI2143
asI416
(lp420
I1928
aI2144
asI417
(lp421
I1929
aI2145
asI418
(lp422
I1930
aI2146
asI419
(lp423
I1931
aI2147
asI420
(lp424
I1932
aI2148
asI421
(lp425
I1933
aI2149
asI422
(lp426
I1934
aI2150
asI423
(lp427
I1935
aI2151
asI424
(lp428
I1936
aI2152
asI425
(lp429
I1937
aI2153
asI426
(lp430
I1938
aI2154
asI427
(lp431
I1939
aI2155
asI428
(lp432
I1940
aI2156
asI429
(lp433
I1941
aI2157
asI430
(lp434
I1942
aI2158
asI431
(lp435
I1943
aI2159
asI432
(lp436
I1728
aI2154
asI433
(lp437
I1729
aI2155
asI434
(lp438
I1730
aI2156
asI435
(lp439
I1731
aI2157
asI436
(lp440
I1732
aI2158
asI437
(lp441
I1733
aI2159
asI438
(lp442
I1734
aI2124
asI439
(lp443
I1735
aI2125
asI440
(lp444
I1736
aI2126
asI441
(lp445
I1737
aI2127
asI442
(lp446
I1738
aI2128
asI443
(lp447
I1739
aI2129
asI444
(lp448
I1740
aI2130
asI445
(lp449
I1741
aI2131
asI446
(lp450
I1742
aI2132
asI447
(lp451
I1743
aI2133
asI448
(lp452
I1744
aI2134
asI449
(lp453
I1745
aI2135
asI450
(lp454
I1746
aI2136
asI451
(lp455
I1747
aI2137
asI452
(lp456
I1748
aI2138
asI453
(lp457
I1749
aI2139
asI454
(lp458
I1750
aI2140
asI455
(lp459
I1751
aI2141
asI456
(lp460
I1752
aI2142
asI457
(lp461
I1753
aI2143
asI458
(lp462
I1754
aI2144
asI459
(lp463
I1755
aI2145
asI460
(lp464
I1756
aI2146
asI461
(lp465
I1757
aI2147
asI462
(lp466
I1758
aI2148
asI463
(lp467
I1759
aI2149
asI464
(lp468
I1760
aI2150
asI465
(lp469
I1761
aI2151
asI466
(lp470
I1762
aI2152
asI467
(lp471
I1763
aI2153
asI468
(lp472
I1764
aI1974
asI469
(lp473
I1765
aI1975
asI470
(lp474
I1766
aI1976
asI471
(lp475
I1767
aI1977
asI472
(lp476
I1768
aI1978
asI473
(lp477
I1769
aI1979
asI474
(lp478
I1770
aI1944
asI475
(lp479
I1771
aI1945
asI476
(lp480
I1772
aI1946
asI477
(lp481
I1773
aI1947
asI478
(lp482
I1774
aI1948
asI479
(lp483
I1775
aI1949
asI480
(lp484
I1776
aI1950
asI481
(lp485
I1777
aI1951
asI482
(lp486
I1778
aI1952
asI483
(lp487
I1779
aI1953
asI484
(lp488
I1780
aI1954
asI485
(lp489
I1781
aI1955
asI486
(lp490
I1782
aI1956
asI487
(lp491
I1783
aI1957
asI488
(lp492
I1784
aI1958
asI489
(lp493
I1785
aI1959
asI490
(lp494
I1786
aI1960
asI491
(lp495
I1787
aI1961
asI492
(lp496
I1788
aI1962
asI493
(lp497
I1789
aI1963
asI494
(lp498
I1790
aI1964
asI495
(lp499
I1791
aI1965
asI496
(lp500
I1792
aI1966
asI497
(lp501
I1793
aI1967
asI498
(lp502
I1794
aI1968
asI499
(lp503
I1795
aI1969
asI500
(lp504
I1796
aI1970
asI501
(lp505
I1797
aI1971
asI502
(lp506
I1798
aI1972
asI503
(lp507
I1799
aI1973
asI504
(lp508
I1800
aI2010
asI505
(lp509
I1801
aI2011
asI506
(lp510
I1802
aI2012
asI507
(lp511
I1803
aI2013
asI508
(lp512
I1804
aI2014
asI509
(lp513
I1805
aI2015
asI510
(lp514
I1806
aI1980
asI511
(lp515
I1807
aI1981
asI512
(lp516
I1808
aI1982
asI513
(lp517
I1809
aI1983
asI514
(lp518
I1810
aI1984
asI515
(lp519
I1811
aI1985
asI516
(lp520
I1812
aI1986
asI517
(lp521
I1813
aI1987
asI518
(lp522
I1814
aI1988
asI519
(lp523
I1815
aI1989
asI520
(lp524
I1816
aI1990
asI521
(lp525
I1817
aI1991
asI522
(lp526
I1818
aI1992
asI523
(lp527
I1819
aI1993
asI524
(lp528
I1820
aI1994
asI525
(lp529
I1821
aI1995
asI526
(lp530
I1822
aI1996
asI527
(lp531
I1823
aI1997
asI528
(lp532
I1824
aI1998
asI529
(lp533
I1825
aI1999
asI530
(lp534
I1826
aI2000
asI531
(lp535
I1827
aI2001
asI532
(lp536
I1828
aI2002
asI533
(lp537
I1829
aI2003
asI534
(lp538
I1830
aI2004
asI535
(lp539
I1831
aI2005
asI536
(lp540
I1832
aI2006
asI537
(lp541
I1833
aI2007
asI538
(lp542
I1834
aI2008
asI539
(lp543
I1835
aI2009
asI540
(lp544
I1836
aI2046
asI541
(lp545
I1837
aI2047
asI542
(lp546
I1838
aI2048
asI543
(lp547
I1839
aI2049
asI544
(lp548
I1840
aI2050
asI545
(lp549
I1841
aI2051
asI546
(lp550
I1842
aI2016
asI547
(lp551
I1843
aI2017
asI548
(lp552
I1844
aI2018
asI549
(lp553
I1845
aI2019
asI550
(lp554
I1846
aI2020
asI551
(lp555
I1847
aI2021
asI552
(lp556
I1848
aI2022
asI553
(lp557
I1849
aI2023
asI554
(lp558
I1850
aI2024
asI555
(lp559
I1851
aI2025
asI556
(lp560
I1852
aI2026
asI557
(lp561
I1853
aI2027
asI558
(lp562
I1854
aI2028
asI559
(lp563
I1855
aI2029
asI560
(lp564
I1856
aI2030
asI561
(lp565
I1857
aI2031
asI562
(lp566
I1858
aI2032
asI563
(lp567
I1859
aI2033
asI564
(lp568
I1860
aI2034
asI565
(lp569
I1861
aI2035
asI566
(lp570
I1862
aI2036
asI567
(lp571
I1863
aI2037
asI568
(lp572
I1864
aI2038
asI569
(lp573
I1865
aI2039
asI570
(lp574
I1866
aI2040
asI571
(lp575
I1867
aI2041
asI572
(lp576
I1868
aI2042
asI573
(lp577
I1869
aI2043
asI574
(lp578
I1870
aI2044
asI575
(lp579
I1871
aI2045
asI576
(lp580
I1872
aI2082
asI577
(lp581
I1873
aI2083
asI578
(lp582
I1874
aI2084
asI579
(lp583
I1875
aI2085
asI580
(lp584
I1876
aI2086
asI581
(lp585
I1877
aI2087
asI582
(lp586
I1878
aI2052
asI583
(lp587
I1879
aI2053
asI584
(lp588
I1880
aI2054
asI585
(lp589
I1881
aI2055
asI586
(lp590
I1882
aI2056
asI587
(lp591
I1883
aI2057
asI588
(lp592
I1884
aI2058
asI589
(lp593
I1885
aI2059
asI590
(lp594
I1886
aI2060
asI591
(lp595
I1887
aI2061
asI592
(lp596
I1888
aI2062
asI593
(lp597
I1889
aI2063
asI594
(lp598
I1890
aI2064
asI595
(lp599
I1891
aI2065
asI596
(lp600
I1892
aI2066
asI597
(lp601
I1893
aI2067
asI598
(lp602
I1894
aI2068
asI599
(lp603
I1895
aI2069
asI600
(lp604
I1896
aI2070
asI601
(lp605
I1897
aI2071
asI602
(lp606
I1898
aI2072
asI603
(lp607
I1899
aI2073
asI604
(lp608
I1900
aI2074
asI605
(lp609
I1901
aI2075
asI606
(lp610
I1902
aI2076
asI607
(lp611
I1903
aI2077
asI608
(lp612
I1904
aI2078
asI609
(lp613
I1905
aI2079
asI610
(lp614
I1906
aI2080
asI611
(lp615
I1907
aI2081
asI612
(lp616
I1908
aI2118
asI613
(lp617
I1909
aI2119
asI614
(lp618
I1910
aI2120
asI615
(lp619
I1911
aI2121
asI616
(lp620
I1912
aI2122
asI617
(lp621
I1913
aI2123
asI618
(lp622
I1914
aI2088
asI619
(lp623
I1915
aI2089
asI620
(lp624
I1916
aI2090
asI621
(lp625
I1917
aI2091
asI622
(lp626
I1918
aI2092
asI623
(lp627
I1919
aI2093
asI624
(lp628
I1920
aI2094
asI625
(lp629
I1921
aI2095
asI626
(lp630
I1922
aI2096
asI627
(lp631
I1923
aI2097
asI628
(lp632
I1924
aI2098
asI629
(lp633
I1925
aI2099
asI630
(lp634
I1926
aI2100
asI631
(lp635
I1927
aI2101
asI632
(lp636
I1928
aI2102
asI633
(lp637
I1929
aI2103
asI634
(lp638
I1930
aI2104
asI635
(lp639
I1931
aI2105
asI636
(lp640
I1932
aI2106
asI637
(lp641
I1933
aI2107
asI638
(lp642
I1934
aI2108
asI639
(lp643
I1935
aI2109
asI640
(lp644
I1936
aI2110
asI641
(lp645
I1937
aI2111
asI642
(lp646
I1938
aI2112
asI643
(lp647
I1939
aI2113
asI644
(lp648
I1940
aI2114
asI645
(lp649
I1941
aI2115
asI646
(lp650
I1942
aI2116
asI647
(lp651
I1943
aI2117
asI648
(lp652
I1770
aI1944
asI649
(lp653
I1771
aI1945
asI650
(lp654
I1772
aI1946
asI651
(lp655
I1773
aI1947
asI652
(lp656
I1774
aI1948
asI653
(lp657
I1775
aI1949
asI654
(lp658
I1776
aI1950
asI655
(lp659
I1777
aI1951
asI656
(lp660
I1778
aI1952
asI657
(lp661
I1779
aI1953
asI658
(lp662
I1780
aI1954
asI659
(lp663
I1781
aI1955
asI660
(lp664
I1782
aI1956
asI661
(lp665
I1783
aI1957
asI662
(lp666
I1784
aI1958
asI663
(lp667
I1785
aI1959
asI664
(lp668
I1786
aI1960
asI665
(lp669
I1787
aI1961
asI666
(lp670
I1788
aI1962
asI667
(lp671
I1789
aI1963
asI668
(lp672
I1790
aI1964
asI669
(lp673
I1791
aI1965
asI670
(lp674
I1792
aI1966
asI671
(lp675
I1793
aI1967
asI672
(lp676
I1794
aI1968
asI673
(lp677
I1795
aI1969
asI674
(lp678
I1796
aI1970
asI675
(lp679
I1797
aI1971
asI676
(lp680
I1798
aI1972
asI677
(lp681
I1799
aI1973
asI678
(lp682
I1764
aI1974
asI679
(lp683
I1765
aI1975
asI680
(lp684
I1766
aI1976
asI681
(lp685
I1767
aI1977
asI682
(lp686
I1768
aI1978
asI683
(lp687
I1769
aI1979
asI684
(lp688
I1806
aI1980
asI685
(lp689
I1807
aI1981
asI686
(lp690
I1808
aI1982
asI687
(lp691
I1809
aI1983
asI688
(lp692
I1810
aI1984
asI689
(lp693
I1811
aI1985
asI690
(lp694
I1812
aI1986
asI691
(lp695
I1813
aI1987
asI692
(lp696
I1814
aI1988
asI693
(lp697
I1815
aI1989
asI694
(lp698
I1816
aI1990
asI695
(lp699
I1817
aI1991
asI696
(lp700
I1818
aI1992
asI697
(lp701
I1819
aI1993
asI698
(lp702
I1820
aI1994
asI699
(lp703
I1821
aI1995
asI700
(lp704
I1822
aI1996
asI701
(lp705
I1823
aI1997
asI702
(lp706
I1824
aI1998
asI703
(lp707
I1825
aI1999
asI704
(lp708
I1826
aI2000
asI705
(lp709
I1827
aI2001
asI706
(lp710
I1828
aI2002
asI707
(lp711
I1829
aI2003
asI708
(lp712
I1830
aI2004
asI709
(lp713
I1831
aI2005
asI710
(lp714
I1832
aI2006
asI711
(lp715
I1833
aI2007
asI712
(lp716
I1834
aI2008
asI713
(lp717
I1835
aI2009
asI714
(lp718
I1800
aI2010
asI715
(lp719
I1801
aI2011
asI716
(lp720
I1802
aI2012
asI717
(lp721
I1803
aI2013
asI718
(lp722
I1804
aI2014
asI719
(lp723
I1805
aI2015
asI720
(lp724
I1842
aI2016
asI721
(lp725
I1843
aI2017
asI722
(lp726
I1844
aI2018
asI723
(lp727
I1845
aI2019
asI724
(lp728
I1846
aI2020
asI725
(lp729
I1847
aI2021
asI726
(lp730
I1848
aI2022
asI727
(lp731
I1849
aI2023
asI728
(lp732
I1850
aI2024
asI729
(lp733
I1851
aI2025
asI730
(lp734
I1852
aI2026
asI731
(lp735
I1853
aI2027
asI732
(lp736
I1854
aI2028
asI733
(lp737
I1855
aI2029
asI734
(lp738
I1856
aI2030
asI735
(lp739
I1857
aI2031
asI736
(lp740
I1858
aI2032
asI737
(lp741
I1859
aI2033
asI738
(lp742
I1860
aI2034
asI739
(lp743
I1861
aI2035
asI740
(lp744
I1862
aI2036
asI741
(lp745
I1863
aI2037
asI742
(lp746
I1864
aI2038
asI743
(lp747
I1865
aI2039
asI744
(lp748
I1866
aI2040
asI745
(lp749
I1867
aI2041
asI746
(lp750
I1868
aI2042
asI747
(lp751
I1869
aI2043
asI748
(lp752
I1870
aI2044
asI749
(lp753
I1871
aI2045
asI750
(lp754
I1836
aI2046
asI751
(lp755
I1837
aI2047
asI752
(lp756
I1838
aI2048
asI753
(lp757
I1839
aI2049
asI754
(lp758
I1840
aI2050
asI755
(lp759
I1841
aI2051
asI756
(lp760
I1878
aI2052
asI757
(lp761
I1879
aI2053
asI758
(lp762
I1880
aI2054
asI759
(lp763
I1881
aI2055
asI760
(lp764
I1882
aI2056
asI761
(lp765
I1883
aI2057
asI762
(lp766
I1884
aI2058
asI763
(lp767
I1885
aI2059
asI764
(lp768
I1886
aI2060
asI765
(lp769
I1887
aI2061
asI766
(lp770
I1888
aI2062
asI767
(lp771
I1889
aI2063
asI768
(lp772
I1890
aI2064
asI769
(lp773
I1891
aI2065
asI770
(lp774
I1892
aI2066
asI771
(lp775
I1893
aI2067
asI772
(lp776
I1894
aI2068
asI773
(lp777
I1895
aI2069
asI774
(lp778
I1896
aI2070
asI775
(lp779
I1897
aI2071
asI776
(lp780
I1898
aI2072
asI777
(lp781
I1899
aI2073
asI778
(lp782
I1900
aI2074
asI779
(lp783
I1901
aI2075
asI780
(lp784
I1902
aI2076
asI781
(lp785
I1903
aI2077
asI782
(lp786
I1904
aI2078
asI783
(lp787
I1905
aI2079
asI784
(lp788
I1906
aI2080
asI785
(lp789
I1907
aI2081
asI786
(lp790
I1872
aI2082
asI787
(lp791
I1873
aI2083
asI788
(lp792
I1874
aI2084
asI789
(lp793
I1875
aI2085
asI790
(lp794
I1876
aI2086
asI791
(lp795
I1877
aI2087
asI792
(lp796
I1914
aI2088
asI793
(lp797
I1915
aI2089
asI794
(lp798
I1916
aI2090
asI795
(lp799
I1917
aI2091
asI796
(lp800
I1918
aI2092
asI797
(lp801
I1919
aI2093
asI798
(lp802
I1920
aI2094
asI799
(lp803
I1921
aI2095
asI800
(lp804
I1922
aI2096
asI801
(lp805
I1923
aI2097
asI802
(lp806
I1924
aI2098
asI803
(lp807
I1925
aI2099
asI804
(lp808
I1926
aI2100
asI805
(lp809
I1927
aI2101
asI806
(lp810
I1928
aI2102
asI807
(lp811
I1929
aI2103
asI808
(lp812
I1930
aI2104
asI809
(lp813
I1931
aI2105
asI810
(lp814
I1932
aI2106
asI811
(lp815
I1933
aI2107
asI812
(lp816
I1934
aI2108
asI813
(lp817
I1935
aI2109
asI814
(lp818
I1936
aI2110
asI815
(lp819
I1937
aI2111
asI816
(lp820
I1938
aI2112
asI817
(lp821
I1939
aI2113
asI818
(lp822
I1940
aI2114
asI819
(lp823
I1941
aI2115
asI820
(lp824
I1942
aI2116
asI821
(lp825
I1943
aI2117
asI822
(lp826
I1908
aI2118
asI823
(lp827
I1909
aI2119
asI824
(lp828
I1910
aI2120
asI825
(lp829
I1911
aI2121
asI826
(lp830
I1912
aI2122
asI827
(lp831
I1913
aI2123
asI828
(lp832
I1734
aI2124
asI829
(lp833
I1735
aI2125
asI830
(lp834
I1736
aI2126
asI831
(lp835
I1737
aI2127
asI832
(lp836
I1738
aI2128
asI833
(lp837
I1739
aI2129
asI834
(lp838
I1740
aI2130
asI835
(lp839
I1741
aI2131
asI836
(lp840
I1742
aI2132
asI837
(lp841
I1743
aI2133
asI838
(lp842
I1744
aI2134
asI839
(lp843
I1745
aI2135
asI840
(lp844
I1746
aI2136
asI841
(lp845
I1747
aI2137
asI842
(lp846
I1748
aI2138
asI843
(lp847
I1749
aI2139
asI844
(lp848
I1750
aI2140
asI845
(lp849
I1751
aI2141
asI846
(lp850
I1752
aI2142
asI847
(lp851
I1753
aI2143
asI848
(lp852
I1754
aI2144
asI849
(lp853
I1755
aI2145
asI850
(lp854
I1756
aI2146
asI851
(lp855
I1757
aI2147
asI852
(lp856
I1758
aI2148
asI853
(lp857
I1759
aI2149
asI854
(lp858
I1760
aI2150
asI855
(lp859
I1761
aI2151
asI856
(lp860
I1762
aI2152
asI857
(lp861
I1763
aI2153
asI858
(lp862
I1728
aI2154
asI859
(lp863
I1729
aI2155
asI860
(lp864
I1730
aI2156
asI861
(lp865
I1731
aI2157
asI862
(lp866
I1732
aI2158
asI863
(lp867
I1733
aI2159
asI864
(lp868
I1728
aI2129
asI865
(lp869
I1729
aI2124
asI866
(lp870
I1730
aI2125
asI867
(lp871
I1731
aI2126
asI868
(lp872
I1732
aI2127
asI869
(lp873
I1733
aI2128
asI870
(lp874
I1734
aI2135
asI871
(lp875
I1735
aI2130
asI872
(lp876
I1736
aI2131
asI873
(lp877
I1737
aI2132
asI874
(lp878
I1738
aI2133
asI875
(lp879
I1739
aI2134
asI876
(lp880
I1740
aI2141
asI877
(lp881
I1741
aI2136
asI878
(lp882
I1742
aI2137
asI879
(lp883
I1743
aI2138
asI880
(lp884
I1744
aI2139
asI881
(lp885
I1745
aI2140
asI882
(lp886
I1746
aI2147
asI883
(lp887
I1747
aI2142
asI884
(lp888
I1748
aI2143
asI885
(lp889
I1749
aI2144
asI886
(lp890
I1750
aI2145
asI887
(lp891
I1751
aI2146
asI888
(lp892
I1752
aI2153
asI889
(lp893
I1753
aI2148
asI890
(lp894
I1754
aI2149
asI891
(lp895
I1755
aI2150
asI892
(lp896
I1756
aI2151
asI893
(lp897
I1757
aI2152
asI894
(lp898
I1758
aI2159
asI895
(lp899
I1759
aI2154
asI896
(lp900
I1760
aI2155
asI897
(lp901
I1761
aI2156
asI898
(lp902
I1762
aI2157
asI899
(lp903
I1763
aI2158
asI900
(lp904
I1764
aI1949
asI901
(lp905
I1765
aI1944
asI902
(lp906
I1766
aI1945
asI903
(lp907
I1767
aI1946
asI904
(lp908
I1768
aI1947
asI905
(lp909
I1769
aI1948
asI906
(lp910
I1770
aI1955
asI907
(lp911
I1771
aI1950
asI908
(lp912
I1772
aI1951
asI909
(lp913
I1773
aI1952
asI910
(lp914
I1774
aI1953
asI911
(lp915
I1775
aI1954
asI912
(lp916
I1776
aI1961
asI913
(lp917
I1777
aI1956
asI914
(lp918
I1778
aI1957
asI915
(lp919
I1779
aI1958
asI916
(lp920
I1780
aI1959
asI917
(lp921
I1781
aI1960
asI918
(lp922
I1782
aI1967
asI919
(lp923
I1783
aI1962
asI920
(lp924
I1784
aI1963
asI921
(lp925
I1785
aI1964
asI922
(lp926
I1786
aI1965
asI923
(lp927
I1787
aI1966
asI924
(lp928
I1788
aI1973
asI925
(lp929
I1789
aI1968
asI926
(lp930
I1790
aI1969
asI927
(lp931
I1791
aI1970
asI928
(lp932
I1792
aI1971
asI929
(lp933
I1793
aI1972
asI930
(lp934
I1794
aI1979
asI931
(lp935
I1795
aI1974
asI932
(lp936
I1796
aI1975
asI933
(lp937
I1797
aI1976
asI934
(lp938
I1798
aI1977
asI935
(lp939
I1799
aI1978
asI936
(lp940
I1800
aI1985
asI937
(lp941
I1801
aI1980
asI938
(lp942
I1802
aI1981
asI939
(lp943
I1803
aI1982
asI940
(lp944
I1804
aI1983
asI941
(lp945
I1805
aI1984
asI942
(lp946
I1806
aI1991
asI943
(lp947
I1807
aI1986
asI944
(lp948
I1808
aI1987
asI945
(lp949
I1809
aI1988
asI946
(lp950
I1810
aI1989
asI947
(lp951
I1811
aI1990
asI948
(lp952
I1812
aI1997
asI949
(lp953
I1813
aI1992
asI950
(lp954
I1814
aI1993
asI951
(lp955
I1815
aI1994
asI952
(lp956
I1816
aI1995
asI953
(lp957
I1817
aI1996
asI954
(lp958
I1818
aI2003
asI955
(lp959
I1819
aI1998
asI956
(lp960
I1820
aI1999
asI957
(lp961
I1821
aI2000
asI958
(lp962
I1822
aI2001
asI959
(lp963
I1823
aI2002
asI960
(lp964
I1824
aI2009
asI961
(lp965
I1825
aI2004
asI962
(lp966
I1826
aI2005
asI963
(lp967
I1827
aI2006
asI964
(lp968
I1828
aI2007
asI965
(lp969
I1829
aI2008
asI966
(lp970
I1830
aI2015
asI967
(lp971
I1831
aI2010
asI968
(lp972
I1832
aI2011
asI969
(lp973
I1833
aI2012
asI970
(lp974
I1834
aI2013
asI971
(lp975
I1835
aI2014
asI972
(lp976
I1836
aI2021
asI973
(lp977
I1837
aI2016
asI974
(lp978
I1838
aI2017
asI975
(lp979
I1839
aI2018
asI976
(lp980
I1840
aI2019
asI977
(lp981
I1841
aI2020
asI978
(lp982
I1842
aI2027
asI979
(lp983
I1843
aI2022
asI980
(lp984
I1844
aI2023
asI981
(lp985
I1845
aI2024
asI982
(lp986
I1846
aI2025
asI983
(lp987
I1847
aI2026
asI984
(lp988
I1848
aI2033
asI985
(lp989
I1849
aI2028
asI986
(lp990
I1850
aI2029
asI987
(lp991
I1851
aI2030
asI988
(lp992
I1852
aI2031
asI989
(lp993
I1853
aI2032
asI990
(lp994
I1854
aI2039
asI991
(lp995
I1855
aI2034
asI992
(lp996
I1856
aI2035
asI993
(lp997
I1857
aI2036
asI994
(lp998
I1858
aI2037
asI995
(lp999
I1859
aI2038
asI996
(lp1000
I1860
aI2045
asI997
(lp1001
I1861
aI2040
asI998
(lp1002
I1862
aI2041
asI999
(lp1003
I1863
aI2042
asI1000
(lp1004
I1864
aI2043
asI1001
(lp1005
I1865
aI2044
asI1002
(lp1006
I1866
aI2051
asI1003
(lp1007
I1867
aI2046
asI1004
(lp1008
I1868
aI2047
asI1005
(lp1009
I1869
aI2048
asI1006
(lp1010
I1870
aI2049
asI1007
(lp1011
I1871
aI2050
asI1008
(lp1012
I1872
aI2057
asI1009
(lp1013
I1873
aI2052
asI1010
(lp1014
I1874
aI2053
asI1011
(lp1015
I1875
aI2054
asI1012
(lp1016
I1876
aI2055
asI1013
(lp1017
I1877
aI2056
asI1014
(lp1018
I1878
aI2063
asI1015
(lp1019
I1879
aI2058
asI1016
(lp1020
I1880
aI2059
asI1017
(lp1021
I1881
aI2060
asI1018
(lp1022
I1882
aI2061
asI1019
(lp1023
I1883
aI2062
asI1020
(lp1024
I1884
aI2069
asI1021
(lp1025
I1885
aI2064
asI1022
(lp1026
I1886
aI2065
asI1023
(lp1027
I1887
aI2066
asI1024
(lp1028
I1888
aI2067
asI1025
(lp1029
I1889
aI2068
asI1026
(lp1030
I1890
aI2075
asI1027
(lp1031
I1891
aI2070
asI1028
(lp1032
I1892
aI2071
asI1029
(lp1033
I1893
aI2072
asI1030
(lp1034
I1894
aI2073
asI1031
(lp1035
I1895
aI2074
asI1032
(lp1036
I1896
aI2081
asI1033
(lp1037
I1897
aI2076
asI1034
(lp1038
I1898
aI2077
asI1035
(lp1039
I1899
aI2078
asI1036
(lp1040
I1900
aI2079
asI1037
(lp1041
I1901
aI2080
asI1038
(lp1042
I1902
aI2087
asI1039
(lp1043
I1903
aI2082
asI1040
(lp1044
I1904
aI2083
asI1041
(lp1045
I1905
aI2084
asI1042
(lp1046
I1906
aI2085
asI1043
(lp1047
I1907
aI2086
asI1044
(lp1048
I1908
aI2093
asI1045
(lp1049
I1909
aI2088
asI1046
(lp1050
I1910
aI2089
asI1047
(lp1051
I1911
aI2090
asI1048
(lp1052
I1912
aI2091
asI1049
(lp1053
I1913
aI2092
asI1050
(lp1054
I1914
aI2099
asI1051
(lp1055
I1915
aI2094
asI1052
(lp1056
I1916
aI2095
asI1053
(lp1057
I1917
aI2096
asI1054
(lp1058
I1918
aI2097
asI1055
(lp1059
I1919
aI2098
asI1056
(lp1060
I1920
aI2105
asI1057
(lp1061
I1921
aI2100
asI1058
(lp1062
I1922
aI2101
asI1059
(lp1063
I1923
aI2102
asI1060
(lp1064
I1924
aI2103
asI1061
(lp1065
I1925
aI2104
asI1062
(lp1066
I1926
aI2111
asI1063
(lp1067
I1927
aI2106
asI1064
(lp1068
I1928
aI2107
asI1065
(lp1069
I1929
aI2108
asI1066
(lp1070
I1930
aI2109
asI1067
(lp1071
I1931
aI2110
asI1068
(lp1072
I1932
aI2117
asI1069
(lp1073
I1933
aI2112
asI1070
(lp1074
I1934
aI2113
asI1071
(lp1075
I1935
aI2114
asI1072
(lp1076
I1936
aI2115
asI1073
(lp1077
I1937
aI2116
asI1074
(lp1078
I1938
aI2123
asI1075
(lp1079
I1939
aI2118
asI1076
(lp1080
I1940
aI2119
asI1077
(lp1081
I1941
aI2120
asI1078
(lp1082
I1942
aI2121
asI1079
(lp1083
I1943
aI2122
asI1080
(lp1084
I1765
aI1944
asI1081
(lp1085
I1766
aI1945
asI1082
(lp1086
I1767
aI1946
asI1083
(lp1087
I1768
aI1947
asI1084
(lp1088
I1769
aI1948
asI1085
(lp1089
I1764
aI1949
asI1086
(lp1090
I1771
aI1950
asI1087
(lp1091
I1772
aI1951
asI1088
(lp1092
I1773
aI1952
asI1089
(lp1093
I1774
aI1953
asI1090
(lp1094
I1775
aI1954
asI1091
(lp1095
I1770
aI1955
asI1092
(lp1096
I1777
aI1956
asI1093
(lp1097
I1778
aI1957
asI1094
(lp1098
I1779
aI1958
asI1095
(lp1099
I1780
aI1959
asI1096
(lp1100
I1781
aI1960
asI1097
(lp1101
I1776
aI1961
asI1098
(lp1102
I1783
aI1962
asI1099
(lp1103
I1784
aI1963
asI1100
(lp1104
I1785
aI1964
asI1101
(lp1105
I1786
aI1965
asI1102
(lp1106
I1787
aI1966
asI1103
(lp1107
I1782
aI1967
asI1104
(lp1108
I1789
aI1968
asI1105
(lp1109
I1790
aI1969
asI1106
(lp1110
I1791
aI1970
asI1107
(lp1111
I1792
aI1971
asI1108
(lp1112
I1793
aI1972
asI1109
(lp1113
I1788
aI1973
asI1110
(lp1114
I1795
aI1974
asI1111
(lp1115
I1796
aI1975
asI1112
(lp1116
I1797
aI1976
asI1113
(lp1117
I1798
aI1977
asI1114
(lp1118
I1799
aI1978
asI1115
(lp1119
I1794
aI1979
asI1116
(lp1120
I1801
aI1980
asI1117
(lp1121
I1802
aI1981
asI1118
(lp1122
I1803
aI1982
asI1119
(lp1123
I1804
aI1983
asI1120
(lp1124
I1805
aI1984
asI1121
(lp1125
I1800
aI1985
asI1122
(lp1126
I1807
aI1986
asI1123
(lp1127
I1808
aI1987
asI1124
(lp1128
I1809
aI1988
asI1125
(lp1129
I1810
aI1989
asI1126
(lp1130
I1811
aI1990
asI1127
(lp1131
I1806
aI1991
asI1128
(lp1132
I1813
aI1992
asI1129
(lp1133
I1814
aI1993
asI1130
(lp1134
I1815
aI1994
asI1131
(lp1135
I1816
aI1995
asI1132
(lp1136
I1817
aI1996
asI1133
(lp1137
I1812
aI1997
asI1134
(lp1138
I1819
aI1998
asI1135
(lp1139
I1820
aI1999
asI1136
(lp1140
I1821
aI2000
asI1137
(lp1141
I1822
aI2001
asI1138
(lp1142
I1823
aI2002
asI1139
(lp1143
I1818
aI2003
asI1140
(lp1144
I1825
aI2004
asI1141
(lp1145
I1826
aI2005
asI1142
(lp1146
I1827
aI2006
asI1143
(lp1147
I1828
aI2007
asI1144
(lp1148
I1829
aI2008
asI1145
(lp1149
I1824
aI2009
asI1146
(lp1150
I1831
aI2010
asI1147
(lp1151
I1832
aI2011
asI1148
(lp1152
I1833
aI2012
asI1149
(lp1153
I1834
aI2013
asI1150
(lp1154
I1835
aI2014
asI1151
(lp1155
I1830
aI2015
asI1152
(lp1156
I1837
aI2016
asI1153
(lp1157
I1838
aI2017
asI1154
(lp1158
I1839
aI2018
asI1155
(lp1159
I1840
aI2019
asI1156
(lp1160
I1841
aI2020
asI1157
(lp1161
I1836
aI2021
asI1158
(lp1162
I1843
aI2022
asI1159
(lp1163
I1844
aI2023
asI1160
(lp1164
I1845
aI2024
asI1161
(lp1165
I1846
aI2025
asI1162
(lp1166
I1847
aI2026
asI1163
(lp1167
I1842
aI2027
asI1164
(lp1168
I1849
aI2028
asI1165
(lp1169
I1850
aI2029
asI1166
(lp1170
I1851
aI2030
asI1167
(lp1171
I1852
aI2031
asI1168
(lp1172
I1853
aI2032
asI1169
(lp1173
I1848
aI2033
asI1170
(lp1174
I1855
aI2034
asI1171
(lp1175
I1856
aI2035
asI1172
(lp1176
I1857
aI2036
asI1173
(lp1177
I1858
aI2037
asI1174
(lp1178
I1859
aI2038
asI1175
(lp1179
I1854
aI2039
asI1176
(lp1180
I1861
aI2040
asI1177
(lp1181
I1862
aI2041
asI1178
(lp1182
I1863
aI2042
asI1179
(lp1183
I1864
aI2043
asI1180
(lp1184
I1865
aI2044
asI1181
(lp1185
I1860
aI2045
asI1182
(lp1186
I1867
aI2046
asI1183
(lp1187
I1868
aI2047
asI1184
(lp1188
I1869
aI2048
asI1185
(lp1189
I1870
aI2049
asI1186
(lp1190
I1871
aI2050
asI1187
(lp1191
I1866
aI2051
asI1188
(lp1192
I1873
aI2052
asI1189
(lp1193
I1874
aI2053
asI1190
(lp1194
I1875
aI2054
asI1191
(lp1195
I1876
aI2055
asI1192
(lp1196
I1877
aI2056
asI1193
(lp1197
I1872
aI2057
asI1194
(lp1198
I1879
aI2058
asI1195
(lp1199
I1880
aI2059
asI1196
(lp1200
I1881
aI2060
asI1197
(lp1201
I1882
aI2061
asI1198
(lp1202
I1883
aI2062
asI1199
(lp1203
I1878
aI2063
asI1200
(lp1204
I1885
aI2064
asI1201
(lp1205
I1886
aI2065
asI1202
(lp1206
I1887
aI2066
asI1203
(lp1207
I1888
aI2067
asI1204
(lp1208
I1889
aI2068
asI1205
(lp1209
I1884
aI2069
asI1206
(lp1210
I1891
aI2070
asI1207
(lp1211
I1892
aI2071
asI1208
(lp1212
I1893
aI2072
asI1209
(lp1213
I1894
aI2073
asI1210
(lp1214
I1895
aI2074
asI1211
(lp1215
I1890
aI2075
asI1212
(lp1216
I1897
aI2076
asI1213
(lp1217
I1898
aI2077
asI1214
(lp1218
I1899
aI2078
asI1215
(lp1219
I1900
aI2079
asI1216
(lp1220
I1901
aI2080
asI1217
(lp1221
I1896
aI2081
asI1218
(lp1222
I1903
aI2082
asI1219
(lp1223
I1904
aI2083
asI1220
(lp1224
I1905
aI2084
asI1221
(lp1225
I1906
aI2085
asI1222
(lp1226
I1907
aI2086
asI1223
(lp1227
I1902
aI2087
asI1224
(lp1228
I1909
aI2088
asI1225
(lp1229
I1910
aI2089
asI1226
(lp1230
I1911
aI2090
asI1227
(lp1231
I1912
aI2091
asI1228
(lp1232
I1913
aI2092
asI1229
(lp1233
I1908
aI2093
asI1230
(lp1234
I1915
aI2094
asI1231
(lp1235
I1916
aI2095
asI1232
(lp1236
I1917
aI2096
asI1233
(lp1237
I1918
aI2097
asI1234
(lp1238
I1919
aI2098
asI1235
(lp1239
I1914
aI2099
asI1236
(lp1240
I1921
aI2100
asI1237
(lp1241
I1922
aI2101
asI1238
(lp1242
I1923
aI2102
asI1239
(lp1243
I1924
aI2103
asI1240
(lp1244
I1925
aI2104
asI1241
(lp1245
I1920
aI2105
asI1242
(lp1246
I1927
aI2106
asI1243
(lp1247
I1928
aI2107
asI1244
(lp1248
I1929
aI2108
asI1245
(lp1249
I1930
aI2109
asI1246
(lp1250
I1931
aI2110
asI1247
(lp1251
I1926
aI2111
asI1248
(lp1252
I1933
aI2112
asI1249
(lp1253
I1934
aI2113
asI1250
(lp1254
I1935
aI2114
asI1251
(lp1255
I1936
aI2115
asI1252
(lp1256
I1937
aI2116
asI1253
(lp1257
I1932
aI2117
asI1254
(lp1258
I1939
aI2118
asI1255
(lp1259
I1940
aI2119
asI1256
(lp1260
I1941
aI2120
asI1257
(lp1261
I1942
aI2121
asI1258
(lp1262
I1943
aI2122
asI1259
(lp1263
I1938
aI2123
asI1260
(lp1264
I1729
aI2124
asI1261
(lp1265
I1730
aI2125
asI1262
(lp1266
I1731
aI2126
asI1263
(lp1267
I1732
aI2127
asI1264
(lp1268
I1733
aI2128
asI1265
(lp1269
I1728
aI2129
asI1266
(lp1270
I1735
aI2130
asI1267
(lp1271
I1736
aI2131
asI1268
(lp1272
I1737
aI2132
asI1269
(lp1273
I1738
aI2133
asI1270
(lp1274
I1739
aI2134
asI1271
(lp1275
I1734
aI2135
asI1272
(lp1276
I1741
aI2136
asI1273
(lp1277
I1742
aI2137
asI1274
(lp1278
I1743
aI2138
asI1275
(lp1279
I1744
aI2139
asI1276
(lp1280
I1745
aI2140
asI1277
(lp1281
I1740
aI2141
asI1278
(lp1282
I1747
aI2142
asI1279
(lp1283
I1748
aI2143
asI1280
(lp1284
I1749
aI2144
asI1281
(lp1285
I1750
aI2145
asI1282
(lp1286
I1751
aI2146
asI1283
(lp1287
I1746
aI2147
asI1284
(lp1288
I1753
aI2148
asI1285
(lp1289
I1754
aI2149
asI1286
(lp1290
I1755
aI2150
asI1287
(lp1291
I1756
aI2151
asI1288
(lp1292
I1757
aI2152
asI1289
(lp1293
I1752
aI2153
asI1290
(lp1294
I1759
aI2154
asI1291
(lp1295
I1760
aI2155
asI1292
(lp1296
I1761
aI2156
asI1293
(lp1297
I1762
aI2157
asI1294
(lp1298
I1763
aI2158
asI1295
(lp1299
I1758
aI2159
asI1296
(lp1300
I1728
aI1979
asI1297
(lp1301
I1729
aI1974
asI1298
(lp1302
I1730
aI1975
asI1299
(lp1303
I1731
aI1976
asI1300
(lp1304
I1732
aI1977
asI1301
(lp1305
I1733
aI1978
asI1302
(lp1306
I1734
aI1949
asI1303
(lp1307
I1735
aI1944
asI1304
(lp1308
I1736
aI1945
asI1305
(lp1309
I1737
aI1946
asI1306
(lp1310
I1738
aI1947
asI1307
(lp1311
I1739
aI1948
asI1308
(lp1312
I1740
aI1955
asI1309
(lp1313
I1741
aI1950
asI1310
(lp1314
I1742
aI1951
asI1311
(lp1315
I1743
aI1952
asI1312
(lp1316
I1744
aI1953
asI1313
(lp1317
I1745
aI1954
asI1314
(lp1318
I1746
aI1961
asI1315
(lp1319
I1747
aI1956
asI1316
(lp1320
I1748
aI1957
asI1317
(lp1321
I1749
aI1958
asI1318
(lp1322
I1750
aI1959
asI1319
(lp1323
I1751
aI1960
asI1320
(lp1324
I1752
aI1967
asI1321
(lp1325
I1753
aI1962
asI1322
(lp1326
I1754
aI1963
asI1323
(lp1327
I1755
aI1964
asI1324
(lp1328
I1756
aI1965
asI1325
(lp1329
I1757
aI1966
asI1326
(lp1330
I1758
aI1973
asI1327
(lp1331
I1759
aI1968
asI1328
(lp1332
I1760
aI1969
asI1329
(lp1333
I1761
aI1970
asI1330
(lp1334
I1762
aI1971
asI1331
(lp1335
I1763
aI1972
asI1332
(lp1336
I1764
aI2015
asI1333
(lp1337
I1765
aI2010
asI1334
(lp1338
I1766
aI2011
asI1335
(lp1339
I1767
aI2012
asI1336
(lp1340
I1768
aI2013
asI1337
(lp1341
I1769
aI2014
asI1338
(lp1342
I1770
aI1985
asI1339
(lp1343
I1771
aI1980
asI1340
(lp1344
I1772
aI1981
asI1341
(lp1345
I1773
aI1982
asI1342
(lp1346
I1774
aI1983
asI1343
(lp1347
I1775
aI1984
asI1344
(lp1348
I1776
aI1991
asI1345
(lp1349
I1777
aI1986
asI1346
(lp1350
I1778
aI1987
asI1347
(lp1351
I1779
aI1988
asI1348
(lp1352
I1780
aI1989
asI1349
(lp1353
I1781
aI1990
asI1350
(lp1354
I1782
aI1997
asI1351
(lp1355
I1783
aI1992
asI1352
(lp1356
I1784
aI1993
asI1353
(lp1357
I1785
aI1994
asI1354
(lp1358
I1786
aI1995
asI1355
(lp1359
I1787
aI1996
asI1356
(lp1360
I1788
aI2003
asI1357
(lp1361
I1789
aI1998
asI1358
(lp1362
I1790
aI1999
asI1359
(lp1363
I1791
aI2000
asI1360
(lp1364
I1792
aI2001
asI1361
(lp1365
I1793
aI2002
asI1362
(lp1366
I1794
aI2009
asI1363
(lp1367
I1795
aI2004
asI1364
(lp1368
I1796
aI2005
asI1365
(lp1369
I1797
aI2006
asI1366
(lp1370
I1798
aI2007
asI1367
(lp1371
I1799
aI2008
asI1368
(lp1372
I1800
aI2051
asI1369
(lp1373
I1801
aI2046
asI1370
(lp1374
I1802
aI2047
asI1371
(lp1375
I1803
aI2048
asI1372
(lp1376
I1804
aI2049
asI1373
(lp1377
I1805
aI2050
asI1374
(lp1378
I1806
aI2021
asI1375
(lp1379
I1807
aI2016
asI1376
(lp1380
I1808
aI2017
asI1377
(lp1381
I1809
aI2018
asI1378
(lp1382
I1810
aI2019
asI1379
(lp1383
I1811
aI2020
asI1380
(lp1384
I1812
aI2027
asI1381
(lp1385
I1813
aI2022
asI1382
(lp1386
I1814
aI2023
asI1383
(lp1387
I1815
aI2024
asI1384
(lp1388
I1816
aI2025
asI1385
(lp1389
I1817
aI2026
asI1386
(lp1390
I1818
aI2033
asI1387
(lp1391
I1819
aI2028
asI1388
(lp1392
I1820
aI2029
asI1389
(lp1393
I1821
aI2030
asI1390
(lp1394
I1822
aI2031
asI1391
(lp1395
I1823
aI2032
asI1392
(lp1396
I1824
aI2039
asI1393
(lp1397
I1825
aI2034
asI1394
(lp1398
I1826
aI2035
asI1395
(lp1399
I1827
aI2036
asI1396
(lp1400
I1828
aI2037
asI1397
(lp1401
I1829
aI2038
asI1398
(lp1402
I1830
aI2045
asI1399
(lp1403
I1831
aI2040
asI1400
(lp1404
I1832
aI2041
asI1401
(lp1405
I1833
aI2042
asI1402
(lp1406
I1834
aI2043
asI1403
(lp1407
I1835
aI2044
asI1404
(lp1408
I1836
aI2087
asI1405
(lp1409
I1837
aI2082
asI1406
(lp1410
I1838
aI2083
asI1407
(lp1411
I1839
aI2084
asI1408
(lp1412
I1840
aI2085
asI1409
(lp1413
I1841
aI2086
asI1410
(lp1414
I1842
aI2057
asI1411
(lp1415
I1843
aI2052
asI1412
(lp1416
I1844
aI2053
asI1413
(lp1417
I1845
aI2054
asI1414
(lp1418
I1846
aI2055
asI1415
(lp1419
I1847
aI2056
asI1416
(lp1420
I1848
aI2063
asI1417
(lp1421
I1849
aI2058
asI1418
(lp1422
I1850
aI2059
asI1419
(lp1423
I1851
aI2060
asI1420
(lp1424
I1852
aI2061
asI1421
(lp1425
I1853
aI2062
asI1422
(lp1426
I1854
aI2069
asI1423
(lp1427
I1855
aI2064
asI1424
(lp1428
I1856
aI2065
asI1425
(lp1429
I1857
aI2066
asI1426
(lp1430
I1858
aI2067
asI1427
(lp1431
I1859
aI2068
asI1428
(lp1432
I1860
aI2075
asI1429
(lp1433
I1861
aI2070
asI1430
(lp1434
I1862
aI2071
asI1431
(lp1435
I1863
aI2072
asI1432
(lp1436
I1864
aI2073
asI1433
(lp1437
I1865
aI2074
asI1434
(lp1438
I1866
aI2081
asI1435
(lp1439
I1867
aI2076
asI1436
(lp1440
I1868
aI2077
asI1437
(lp1441
I1869
aI2078
asI1438
(lp1442
I1870
aI2079
asI1439
(lp1443
I1871
aI2080
asI1440
(lp1444
I1872
aI2123
asI1441
(lp1445
I1873
aI2118
asI1442
(lp1446
I1874
aI2119
asI1443
(lp1447
I1875
aI2120
asI1444
(lp1448
I1876
aI2121
asI1445
(lp1449
I1877
aI2122
asI1446
(lp1450
I1878
aI2093
asI1447
(lp1451
I1879
aI2088
asI1448
(lp1452
I1880
aI2089
asI1449
(lp1453
I1881
aI2090
asI1450
(lp1454
I1882
aI2091
asI1451
(lp1455
I1883
aI2092
asI1452
(lp1456
I1884
aI2099
asI1453
(lp1457
I1885
aI2094
asI1454
(lp1458
I1886
aI2095
asI1455
(lp1459
I1887
aI2096
asI1456
(lp1460
I1888
aI2097
asI1457
(lp1461
I1889
aI2098
asI1458
(lp1462
I1890
aI2105
asI1459
(lp1463
I1891
aI2100
asI1460
(lp1464
I1892
aI2101
asI1461
(lp1465
I1893
aI2102
asI1462
(lp1466
I1894
aI2103
asI1463
(lp1467
I1895
aI2104
asI1464
(lp1468
I1896
aI2111
asI1465
(lp1469
I1897
aI2106
asI1466
(lp1470
I1898
aI2107
asI1467
(lp1471
I1899
aI2108
asI1468
(lp1472
I1900
aI2109
asI1469
(lp1473
I1901
aI2110
asI1470
(lp1474
I1902
aI2117
asI1471
(lp1475
I1903
aI2112
asI1472
(lp1476
I1904
aI2113
asI1473
(lp1477
I1905
aI2114
asI1474
(lp1478
I1906
aI2115
asI1475
(lp1479
I1907
aI2116
asI1476
(lp1480
I1908
aI2159
asI1477
(lp1481
I1909
aI2154
asI1478
(lp1482
I1910
aI2155
asI1479
(lp1483
I1911
aI2156
asI1480
(lp1484
I1912
aI2157
asI1481
(lp1485
I1913
aI2158
asI1482
(lp1486
I1914
aI2129
asI1483
(lp1487
I1915
aI2124
asI1484
(lp1488
I1916
aI2125
asI1485
(lp1489
I1917
aI2126
asI1486
(lp1490
I1918
aI2127
asI1487
(lp1491
I1919
aI2128
asI1488
(lp1492
I1920
aI2135
asI1489
(lp1493
I1921
aI2130
asI1490
(lp1494
I1922
aI2131
asI1491
(lp1495
I1923
aI2132
asI1492
(lp1496
I1924
aI2133
asI1493
(lp1497
I1925
aI2134
asI1494
(lp1498
I1926
aI2141
asI1495
(lp1499
I1927
aI2136
asI1496
(lp1500
I1928
aI2137
asI1497
(lp1501
I1929
aI2138
asI1498
(lp1502
I1930
aI2139
asI1499
(lp1503
I1931
aI2140
asI1500
(lp1504
I1932
aI2147
asI1501
(lp1505
I1933
aI2142
asI1502
(lp1506
I1934
aI2143
asI1503
(lp1507
I1935
aI2144
asI1504
(lp1508
I1936
aI2145
asI1505
(lp1509
I1937
aI2146
asI1506
(lp1510
I1938
aI2153
asI1507
(lp1511
I1939
aI2148
asI1508
(lp1512
I1940
aI2149
asI1509
(lp1513
I1941
aI2150
asI1510
(lp1514
I1942
aI2151
asI1511
(lp1515
I1943
aI2152
asI1512
(lp1516
I1735
aI1944
asI1513
(lp1517
I1736
aI1945
asI1514
(lp1518
I1737
aI1946
asI1515
(lp1519
I1738
aI1947
asI1516
(lp1520
I1739
aI1948
asI1517
(lp1521
I1734
aI1949
asI1518
(lp1522
I1741
aI1950
asI1519
(lp1523
I1742
aI1951
asI1520
(lp1524
I1743
aI1952
asI1521
(lp1525
I1744
aI1953
asI1522
(lp1526
I1745
aI1954
asI1523
(lp1527
I1740
aI1955
asI1524
(lp1528
I1747
aI1956
asI1525
(lp1529
I1748
aI1957
asI1526
(lp1530
I1749
aI1958
asI1527
(lp1531
I1750
aI1959
asI1528
(lp1532
I1751
aI1960
asI1529
(lp1533
I1746
aI1961
asI1530
(lp1534
I1753
aI1962
asI1531
(lp1535
I1754
aI1963
asI1532
(lp1536
I1755
aI1964
asI1533
(lp1537
I1756
aI1965
asI1534
(lp1538
I1757
aI1966
asI1535
(lp1539
I1752
aI1967
asI1536
(lp1540
I1759
aI1968
asI1537
(lp1541
I1760
aI1969
asI1538
(lp1542
I1761
aI1970
asI1539
(lp1543
I1762
aI1971
asI1540
(lp1544
I1763
aI1972
asI1541
(lp1545
I1758
aI1973
asI1542
(lp1546
I1729
aI1974
asI1543
(lp1547
I1730
aI1975
asI1544
(lp1548
I1731
aI1976
asI1545
(lp1549
I1732
aI1977
asI1546
(lp1550
I1733
aI1978
asI1547
(lp1551
I1728
aI1979
asI1548
(lp1552
I1771
aI1980
asI1549
(lp1553
I1772
aI1981
asI1550
(lp1554
I1773
aI1982
asI1551
(lp1555
I1774
aI1983
asI1552
(lp1556
I1775
aI1984
asI1553
(lp1557
I1770
aI1985
asI1554
(lp1558
I1777
aI1986
asI1555
(lp1559
I1778
aI1987
asI1556
(lp1560
I1779
aI1988
asI1557
(lp1561
I1780
aI1989
asI1558
(lp1562
I1781
aI1990
asI1559
(lp1563
I1776
aI1991
asI1560
(lp1564
I1783
aI1992
asI1561
(lp1565
I1784
aI1993
asI1562
(lp1566
I1785
aI1994
asI1563
(lp1567
I1786
aI1995
asI1564
(lp1568
I1787
aI1996
asI1565
(lp1569
I1782
aI1997
asI1566
(lp1570
I1789
aI1998
asI1567
(lp1571
I1790
aI1999
asI1568
(lp1572
I1791
aI2000
asI1569
(lp1573
I1792
aI2001
asI1570
(lp1574
I1793
aI2002
asI1571
(lp1575
I1788
aI2003
asI1572
(lp1576
I1795
aI2004
asI1573
(lp1577
I1796
aI2005
asI1574
(lp1578
I1797
aI2006
asI1575
(lp1579
I1798
aI2007
asI1576
(lp1580
I1799
aI2008
asI1577
(lp1581
I1794
aI2009
asI1578
(lp1582
I1765
aI2010
asI1579
(lp1583
I1766
aI2011
asI1580
(lp1584
I1767
aI2012
asI1581
(lp1585
I1768
aI2013
asI1582
(lp1586
I1769
aI2014
asI1583
(lp1587
I1764
aI2015
asI1584
(lp1588
I1807
aI2016
asI1585
(lp1589
I1808
aI2017
asI1586
(lp1590
I1809
aI2018
asI1587
(lp1591
I1810
aI2019
asI1588
(lp1592
I1811
aI2020
asI1589
(lp1593
I1806
aI2021
asI1590
(lp1594
I1813
aI2022
asI1591
(lp1595
I1814
aI2023
asI1592
(lp1596
I1815
aI2024
asI1593
(lp1597
I1816
aI2025
asI1594
(lp1598
I1817
aI2026
asI1595
(lp1599
I1812
aI2027
asI1596
(lp1600
I1819
aI2028
asI1597
(lp1601
I1820
aI2029
asI1598
(lp1602
I1821
aI2030
asI1599
(lp1603
I1822
aI2031
asI1600
(lp1604
I1823
aI2032
asI1601
(lp1605
I1818
aI2033
asI1602
(lp1606
I1825
aI2034
asI1603
(lp1607
I1826
aI2035
asI1604
(lp1608
I1827
aI2036
asI1605
(lp1609
I1828
aI2037
asI1606
(lp1610
I1829
aI2038
asI1607
(lp1611
I1824
aI2039
asI1608
(lp1612
I1831
aI2040
asI1609
(lp1613
I1832
aI2041
asI1610
(lp1614
I1833
aI2042
asI1611
(lp1615
I1834
aI2043
asI1612
(lp1616
I1835
aI2044
asI1613
(lp1617
I1830
aI2045
asI1614
(lp1618
I1801
aI2046
asI1615
(lp1619
I1802
aI2047
asI1616
(lp1620
I1803
aI2048
asI1617
(lp1621
I1804
aI2049
asI1618
(lp1622
I1805
aI2050
asI1619
(lp1623
I1800
aI2051
asI1620
(lp1624
I1843
aI2052
asI1621
(lp1625
I1844
aI2053
asI1622
(lp1626
I1845
aI2054
asI1623
(lp1627
I1846
aI2055
asI1624
(lp1628
I1847
aI2056
asI1625
(lp1629
I1842
aI2057
asI1626
(lp1630
I1849
aI2058
asI1627
(lp1631
I1850
aI2059
asI1628
(lp1632
I1851
aI2060
asI1629
(lp1633
I1852
aI2061
asI1630
(lp1634
I1853
aI2062
asI1631
(lp1635
I1848
aI2063
asI1632
(lp1636
I1855
aI2064
asI1633
(lp1637
I1856
aI2065
asI1634
(lp1638
I1857
aI2066
asI1635
(lp1639
I1858
aI2067
asI1636
(lp1640
I1859
aI2068
asI1637
(lp1641
I1854
aI2069
asI1638
(lp1642
I1861
aI2070
asI1639
(lp1643
I1862
aI2071
asI1640
(lp1644
I1863
aI2072
asI1641
(lp1645
I1864
aI2073
asI1642
(lp1646
I1865
aI2074
asI1643
(lp1647
I1860
aI2075
asI1644
(lp1648
I1867
aI2076
asI1645
(lp1649
I1868
aI2077
asI1646
(lp1650
I1869
aI2078
asI1647
(lp1651
I1870
aI2079
asI1648
(lp1652
I1871
aI2080
asI1649
(lp1653
I1866
aI2081
asI1650
(lp1654
I1837
aI2082
asI1651
(lp1655
I1838
aI2083
asI1652
(lp1656
I1839
aI2084
asI1653
(lp1657
I1840
aI2085
asI1654
(lp1658
I1841
aI2086
asI1655
(lp1659
I1836
aI2087
asI1656
(lp1660
I1879
aI2088
asI1657
(lp1661
I1880
aI2089
asI1658
(lp1662
I1881
aI2090
asI1659
(lp1663
I1882
aI2091
asI1660
(lp1664
I1883
aI2092
asI1661
(lp1665
I1878
aI2093
asI1662
(lp1666
I1885
aI2094
asI1663
(lp1667
I1886
aI2095
asI1664
(lp1668
I1887
aI2096
asI1665
(lp1669
I1888
aI2097
asI1666
(lp1670
I1889
aI2098
asI1667
(lp1671
I1884
aI2099
asI1668
(lp1672
I1891
aI2100
asI1669
(lp1673
I1892
aI2101
asI1670
(lp1674
I1893
aI2102
asI1671
(lp1675
I1894
aI2103
asI1672
(lp1676
I1895
aI2104
asI1673
(lp1677
I1890
aI2105
asI1674
(lp1678
I1897
aI2106
asI1675
(lp1679
I1898
aI2107
asI1676
(lp1680
I1899
aI2108
asI1677
(lp1681
I1900
aI2109
asI1678
(lp1682
I1901
aI2110
asI1679
(lp1683
I1896
aI2111
asI1680
(lp1684
I1903
aI2112
asI1681
(lp1685
I1904
aI2113
asI1682
(lp1686
I1905
aI2114
asI1683
(lp1687
I1906
aI2115
asI1684
(lp1688
I1907
aI2116
asI1685
(lp1689
I1902
aI2117
asI1686
(lp1690
I1873
aI2118
asI1687
(lp1691
I1874
aI2119
asI1688
(lp1692
I1875
aI2120
asI1689
(lp1693
I1876
aI2121
asI1690
(lp1694
I1877
aI2122
asI1691
(lp1695
I1872
aI2123
asI1692
(lp1696
I1915
aI2124
asI1693
(lp1697
I1916
aI2125
asI1694
(lp1698
I1917
aI2126
asI1695
(lp1699
I1918
aI2127
asI1696
(lp1700
I1919
aI2128
asI1697
(lp1701
I1914
aI2129
asI1698
(lp1702
I1921
aI2130
asI1699
(lp1703
I1922
aI2131
asI1700
(lp1704
I1923
aI2132
asI1701
(lp1705
I1924
aI2133
asI1702
(lp1706
I1925
aI2134
asI1703
(lp1707
I1920
aI2135
asI1704
(lp1708
I1927
aI2136
asI1705
(lp1709
I1928
aI2137
asI1706
(lp1710
I1929
aI2138
asI1707
(lp1711
I1930
aI2139
asI1708
(lp1712
I1931
aI2140
asI1709
(lp1713
I1926
aI2141
asI1710
(lp1714
I1933
aI2142
asI1711
(lp1715
I1934
aI2143
asI1712
(lp1716
I1935
aI2144
asI1713
(lp1717
I1936
aI2145
asI1714
(lp1718
I1937
aI2146
asI1715
(lp1719
I1932
aI2147
asI1716
(lp1720
I1939
aI2148
asI1717
(lp1721
I1940
aI2149
asI1718
(lp1722
I1941
aI2150
asI1719
(lp1723
I1942
aI2151
asI1720
(lp1724
I1943
aI2152
asI1721
(lp1725
I1938
aI2153
asI1722
(lp1726
I1909
aI2154
asI1723
(lp1727
I1910
aI2155
asI1724
(lp1728
I1911
aI2156
asI1725
(lp1729
I1912
aI2157
asI1726
(lp1730
I1913
aI2158
asI1727
(lp1731
I1908
aI2159
as.