ccollections
defaultdict
p0
(c__builtin__
list
p1
tp2
Rp3
I504
(lp4
I0
aI74
asI505
(lp5
I1
aI75
asI506
(lp6
I2
aI76
asI507
(lp7
I3
aI77
asI508
(lp8
I4
aI72
asI509
(lp9
I5
aI73
asI510
(lp10
I6
aI80
asI511
(lp11
I7
aI81
asI512
(lp12
I8
aI82
asI513
(lp13
I9
aI83
asI514
(lp14
I10
aI78
asI515
(lp15
I11
aI79
asI516
(lp16
I12
aI86
asI517
(lp17
I13
aI87
asI518
(lp18
I14
aI88
asI519
(lp19
I15
aI89
asI520
(lp20
I16
aI84
asI521
(lp21
I17
aI85
asI522
(lp22
I19
aI94
asI523
(lp23
I21
aI90
asI524
(lp24
I23
aI92
asI525
(lp25
I25
aI100
asI526
(lp26
I27
aI96
asI527
(lp27
I29
aI98
asI528
(lp28
I31
aI106
asI529
(lp29
I33
aI102
asI530
(lp30
I35
aI104
asI531
(lp31
I1
aI110
asI532
(lp32
I3
aI112
asI533
(lp33
I5
aI108
asI534
(lp34
I7
aI116
asI535
(lp35
I9
aI118
asI536
(lp36
I11
aI114
asI537
(lp37
I13
aI122
asI538
(lp38
I15
aI124
asI539
(lp39
I17
aI120
asI540
(lp40
I18
aI130
asI541
(lp41
I19
aI131
asI542
(lp42
I20
aI126
asI543
(lp43
I21
aI127
asI544
(lp44
I22
aI128
asI545
(lp45
I23
aI129
asI546
(lp46
I24
aI136
asI547
(lp47
I25
aI137
asI548
(lp48
I26
aI132
asI549
(lp49
I27
aI133
asI550
(lp50
I28
aI134
asI551
(lp51
I29
aI135
asI552
(lp52
I30
aI142
asI553
(lp53
I31
aI143
asI554
(lp54
I32
aI138
asI555
(lp55
I33
aI139
asI556
(lp56
I34
aI140
asI557
(lp57
I35
aI141
asI558
(lp58
I36
aI144
asI559
(lp59
I37
aI145
asI560
(lp60
I38
aI146
asI561
(lp61
I39
aI147
asI562
(lp62
I40
aI148
asI563
(lp63
I41
aI149
asI564
(lp64
I42
aI150
asI565
(lp65
I43
aI151
asI566
(lp66
I44
aI152
asI567
(lp67
I45
aI153
asI568
(lp68
I46
aI154
asI569
(lp69
I47
aI155
asI570
(lp70
I48
aI156
asI571
(lp71
I49
aI157
asI572
(lp72
I50
aI158
asI573
(lp73
I51
aI159
asI574
(lp74
I52
aI160
asI575
(lp75
I53
aI161
asI576
(lp76
I54
aI162
asI577
(lp77
I55
aI163
asI578
(lp78
I56
aI164
asI579
(lp79
I57
aI165
asI580
(lp80
I58
aI166
asI581
(lp81
I59
aI167
asI582
(lp82
I60
aI168
asI583
(lp83
I61
aI169
asI584
(lp84
I62
aI170
asI585
(lp85
I63
aI171
asI586
(lp86
I64
aI172
asI587
(lp87
I65
aI173
asI588
(lp88
I66
aI174
asI589
(lp89
I67
aI175
asI590
(lp90
I68
aI176
asI591
(lp91
I69
aI177
asI592
(lp92
I70
aI178
asI593
(lp93
I71
aI179
asI594
(lp94
I36
aI180
asI595
(lp95
I37
aI181
asI596
(lp96
I38
aI182
asI597
(lp97
I39
aI183
asI598
(lp98
I40
aI184
asI599
(lp99
I41
aI185
asI600
(lp100
I42
aI186
asI601
(lp101
I43
aI187
asI602
(lp102
I44
aI188
asI603
(lp103
I45
aI189
asI604
(lp104
I46
aI190
asI605
(lp105
I47
aI191
asI606
(lp106
I48
aI192
asI607
(lp107
I49
aI193
asI608
(lp108
I50
aI194
asI609
(lp109
I51
aI195
asI610
(lp110
I52
aI196
asI611
(lp111
I53
aI197
asI612
(lp112
I54
aI198
asI613
(lp113
I55
aI199
asI614
(lp114
I56
aI200
asI615
(lp115
I57
aI201
asI616
(lp116
I58
aI202
asI617
(lp117
I59
aI203
asI618
(lp118
I60
aI204
asI619
(lp119
I61
aI205
asI620
(lp120
I62
aI206
asI621
(lp121
I63
aI207
asI622
(lp122
I64
aI208
asI623
(lp123
I65
aI209
asI624
(lp124
I66
aI210
asI625
(lp125
I67
aI211
asI626
(lp126
I68
aI212
asI627
(lp127
I69
aI213
asI628
(lp128
I70
aI214
asI629
(lp129
I71
aI215
asI630
(lp130
I0
aI216
asI631
(lp131
I1
aI217
asI632
(lp132
I2
aI218
asI633
(lp133
I3
aI219
asI634
(lp134
I4
aI220
asI635
(lp135
I5
aI221
asI636
(lp136
I6
aI222
asI637
(lp137
I7
aI223
asI638
(lp138
I8
aI224
asI639
(lp139
I9
aI225
asI640
(lp140
I10
aI226
asI641
(lp141
I11
aI227
asI642
(lp142
I12
aI228
asI643
(lp143
I13
aI229
asI644
(lp144
I14
aI230
asI645
(lp145
I15
aI231
asI646
(lp146
I16
aI232
asI647
(lp147
I17
aI233
asI648
(lp148
I19
aI234
asI649
(lp149
I21
aI236
asI650
(lp150
I23
aI238
asI651
(lp151
I25
aI240
asI652
(lp152
I27
aI242
asI653
(lp153
I29
aI244
asI654
(lp154
I31
aI246
asI655
(lp155
I33
aI248
asI656
(lp156
I35
aI250
asI657
(lp157
I1
aI252
asI658
(lp158
I3
aI254
asI659
(lp159
I5
aI256
asI660
(lp160
I7
aI258
asI661
(lp161
I9
aI260
asI662
(lp162
I11
aI262
asI663
(lp163
I13
aI264
asI664
(lp164
I15
aI266
asI665
(lp165
I17
aI268
asI666
(lp166
I18
aI270
asI667
(lp167
I19
aI271
asI668
(lp168
I20
aI272
asI669
(lp169
I21
aI273
asI670
(lp170
I22
aI274
asI671
(lp171
I23
aI275
asI672
(lp172
I24
aI276
asI673
(lp173
I25
aI277
asI674
(lp174
I26
aI278
asI675
(lp175
I27
aI279
asI676
(lp176
I28
aI280
asI677
(lp177
I29
aI281
asI678
(lp178
I30
aI282
asI679
(lp179
I31
aI283
asI680
(lp180
I32
aI284
asI681
(lp181
I33
aI285
asI682
(lp182
I34
aI286
asI683
(lp183
I35
aI287
asI684
(lp184
I36
aI288
asI685
(lp185
I37
aI289
asI686
(lp186
I38
aI290
asI687
(lp187
I39
aI291
asI688
(lp188
I40
aI292
asI689
(lp189
I41
aI293
asI690
(lp190
I42
aI294
asI691
(lp191
I43
aI295
asI692
(lp192
I44
aI296
asI693
(lp193
I45
aI297
asI694
(lp194
I46
aI298
asI695
(lp195
I47
aI299
asI696
(lp196
I48
aI300
asI697
(lp197
I49
aI301
asI698
(lp198
I50
aI302
asI699
(lp199
I51
aI303
asI700
(lp200
I52
aI304
asI701
(lp201
I53
aI305
asI702
(lp202
I54
aI306
asI703
(lp203
I55
aI307
asI704
(lp204
I56
aI308
asI705
(lp205
I57
aI309
asI706
(lp206
I58
aI310
asI707
(lp207
I59
aI311
asI708
(lp208
I60
aI312
asI709
(lp209
I61
aI313
asI710
(lp210
I62
aI314
asI711
(lp211
I63
aI315
asI712
(lp212
I64
aI316
asI713
(lp213
I65
aI317
asI714
(lp214
I66
aI318
asI715
(lp215
I67
aI319
asI716
(lp216
I68
aI320
asI717
(lp217
I69
aI321
asI718
(lp218
I70
aI322
asI719
(lp219
I71
aI323
asI720
(lp220
I36
aI324
asI721
(lp221
I37
aI325
asI722
(lp222
I38
aI326
asI723
(lp223
I39
aI327
asI724
(lp224
I40
aI328
asI725
(lp225
I41
aI329
asI726
(lp226
I42
aI330
asI727
(lp227
I43
aI331
asI728
(lp228
I44
aI332
asI729
(lp229
I45
aI333
asI730
(lp230
I46
aI334
asI731
(lp231
I47
aI335
asI732
(lp232
I48
aI336
asI733
(lp233
I49
aI337
asI734
(lp234
I50
aI338
asI735
(lp235
I51
aI339
asI736
(lp236
I52
aI340
asI737
(lp237
I53
aI341
asI738
(lp238
I54
aI342
asI739
(lp239
I55
aI343
asI740
(lp240
I56
aI344
asI741
(lp241
I57
aI345
asI742
(lp242
I58
aI346
asI743
(lp243
I59
aI347
asI744
(lp244
I60
aI348
asI745
(lp245
I61
aI349
asI746
(lp246
I62
aI350
asI747
(lp247
I63
aI351
asI748
(lp248
I64
aI352
asI749
(lp249
I65
aI353
asI750
(lp250
I66
aI354
asI751
(lp251
I67
aI355
asI752
(lp252
I68
aI356
asI753
(lp253
I69
aI357
asI754
(lp254
I70
aI358
asI755
(lp255
I71
aI359
asI756
(lp256
I0
aI74
asI757
(lp257
I1
aI75
asI758
(lp258
I2
aI76
asI759
(lp259
I3
aI77
asI760
(lp260
I6
aI80
asI761
(lp261
I7
aI81
asI762
(lp262
I8
aI82
asI763
(lp263
I9
aI83
asI764
(lp264
I12
aI86
asI765
(lp265
I13
aI87
asI766
(lp266
I14
aI88
asI767
(lp267
I15
aI89
asI768
(lp268
I21
aI90
asI769
(lp269
I20
aI91
asI770
(lp270
I23
aI92
asI771
(lp271
I22
aI93
asI772
(lp272
I27
aI96
asI773
(lp273
I26
aI97
asI774
(lp274
I29
aI98
asI775
(lp275
I28
aI99
asI776
(lp276
I33
aI102
asI777
(lp277
I32
aI103
asI778
(lp278
I35
aI104
asI779
(lp279
I34
aI105
asI780
(lp280
I1
aI110
asI781
(lp281
I0
aI111
asI782
(lp282
I3
aI112
asI783
(lp283
I2
aI113
asI784
(lp284
I7
aI116
asI785
(lp285
I6
aI117
asI786
(lp286
I9
aI118
asI787
(lp287
I8
aI119
asI788
(lp288
I13
aI122
asI789
(lp289
I12
aI123
asI790
(lp290
I15
aI124
asI791
(lp291
I14
aI125
asI792
(lp292
I20
aI126
asI793
(lp293
I21
aI127
asI794
(lp294
I22
aI128
asI795
(lp295
I23
aI129
asI796
(lp296
I26
aI132
asI797
(lp297
I27
aI133
asI798
(lp298
I28
aI134
asI799
(lp299
I29
aI135
asI800
(lp300
I32
aI138
asI801
(lp301
I33
aI139
asI802
(lp302
I34
aI140
asI803
(lp303
I35
aI141
asI804
(lp304
I36
aI144
asI805
(lp305
I37
aI145
asI806
(lp306
I38
aI146
asI807
(lp307
I39
aI147
asI808
(lp308
I40
aI148
asI809
(lp309
I41
aI149
asI810
(lp310
I42
aI150
asI811
(lp311
I43
aI151
asI812
(lp312
I44
aI152
asI813
(lp313
I45
aI153
asI814
(lp314
I46
aI154
asI815
(lp315
I47
aI155
asI816
(lp316
I48
aI156
asI817
(lp317
I49
aI157
asI818
(lp318
I50
aI158
asI819
(lp319
I51
aI159
asI820
(lp320
I52
aI160
asI821
(lp321
I53
aI161
asI822
(lp322
I54
aI162
asI823
(lp323
I55
aI163
asI824
(lp324
I56
aI164
asI825
(lp325
I57
aI165
asI826
(lp326
I58
aI166
asI827
(lp327
I59
aI167
asI828
(lp328
I60
aI168
asI829
(lp329
I61
aI169
asI830
(lp330
I62
aI170
asI831
(lp331
I63
aI171
asI832
(lp332
I64
aI172
asI833
(lp333
I65
aI173
asI834
(lp334
I66
aI174
asI835
(lp335
I67
aI175
asI836
(lp336
I68
aI176
asI837
(lp337
I69
aI177
asI838
(lp338
I70
aI178
asI839
(lp339
I71
aI179
asI840
(lp340
I36
aI180
asI841
(lp341
I37
aI181
asI842
(lp342
I38
aI182
asI843
(lp343
I39
aI183
asI844
(lp344
I40
aI184
asI845
(lp345
I41
aI185
asI846
(lp346
I42
aI186
asI847
(lp347
I43
aI187
asI848
(lp348
I44
aI188
asI849
(lp349
I45
aI189
asI850
(lp350
I46
aI190
asI851
(lp351
I47
aI191
asI852
(lp352
I48
aI192
asI853
(lp353
I49
aI193
asI854
(lp354
I50
aI194
asI855
(lp355
I51
aI195
asI856
(lp356
I52
aI196
asI857
(lp357
I53
aI197
asI858
(lp358
I54
aI198
asI859
(lp359
I55
aI199
asI860
(lp360
I56
aI200
asI861
(lp361
I57
aI201
asI862
(lp362
I58
aI202
asI863
(lp363
I59
aI203
asI864
(lp364
I60
aI204
asI865
(lp365
I61
aI205
asI866
(lp366
I62
aI206
asI867
(lp367
I63
aI207
asI868
(lp368
I64
aI208
asI869
(lp369
I65
aI209
asI870
(lp370
I66
aI210
asI871
(lp371
I67
aI211
asI872
(lp372
I68
aI212
asI873
(lp373
I69
aI213
asI874
(lp374
I70
aI214
asI875
(lp375
I71
aI215
asI876
(lp376
I72
aI324
asI877
(lp377
I73
aI325
asI878
(lp378
I74
aI326
asI879
(lp379
I75
aI327
asI880
(lp380
I76
aI328
asI881
(lp381
I77
aI329
asI882
(lp382
I78
aI330
asI883
(lp383
I79
aI331
asI884
(lp384
I80
aI332
asI885
(lp385
I81
aI333
asI886
(lp386
I82
aI334
asI887
(lp387
I83
aI335
asI888
(lp388
I84
aI336
asI889
(lp389
I85
aI337
asI890
(lp390
I86
aI338
asI891
(lp391
I87
aI339
asI892
(lp392
I88
aI340
asI893
(lp393
I89
aI341
asI894
(lp394
I90
aI342
asI895
(lp395
I91
aI343
asI896
(lp396
I92
aI344
asI897
(lp397
I93
aI345
asI898
(lp398
I94
aI346
asI899
(lp399
I95
aI347
asI900
(lp400
I96
aI348
asI901
(lp401
I97
aI349
asI902
(lp402
I98
aI350
asI903
(lp403
I99
aI351
asI904
(lp404
I100
aI352
asI905
(lp405
I101
aI353
asI906
(lp406
I102
aI354
asI907
(lp407
I103
aI355
asI908
(lp408
I104
aI356
asI909
(lp409
I105
aI357
asI910
(lp410
I106
aI358
asI911
(lp411
I107
aI359
asI912
(lp412
I108
aI288
asI913
(lp413
I109
aI289
asI914
(lp414
I110
aI290
asI915
(lp415
I111
aI291
asI916
(lp416
I112
aI292
asI917
(lp417
I113
aI293
asI918
(lp418
I114
aI294
asI919
(lp419
I115
aI295
asI920
(lp420
I116
aI296
asI921
(lp421
I117
aI297
asI922
(lp422
I118
aI298
asI923
(lp423
I119
aI299
asI924
(lp424
I120
aI300
asI925
(lp425
I121
aI301
asI926
(lp426
I122
aI302
asI927
(lp427
I123
aI303
asI928
(lp428
I124
aI304
asI929
(lp429
I125
aI305
asI930
(lp430
I126
aI306
asI931
(lp431
I127
aI307
asI932
(lp432
I128
aI308
asI933
(lp433
I129
aI309
asI934
(lp434
I130
aI310
asI935
(lp435
I131
aI311
asI936
(lp436
I132
aI312
asI937
(lp437
I133
aI313
asI938
(lp438
I134
aI314
asI939
(lp439
I135
aI315
asI940
(lp440
I136
aI316
asI941
(lp441
I137
aI317
asI942
(lp442
I138
aI318
asI943
(lp443
I139
aI319
asI944
(lp444
I140
aI320
asI945
(lp445
I141
aI321
asI946
(lp446
I142
aI322
asI947
(lp447
I143
aI323
asI948
(lp448
I144
aI252
asI949
(lp449
I145
aI253
asI950
(lp450
I146
aI254
asI951
(lp451
I147
aI255
asI952
(lp452
I148
aI256
asI953
(lp453
I149
aI257
asI954
(lp454
I150
aI258
asI955
(lp455
I151
aI259
asI956
(lp456
I152
aI260
asI957
(lp457
I153
aI261
asI958
(lp458
I154
aI262
asI959
(lp459
I155
aI263
asI960
(lp460
I156
aI264
asI961
(lp461
I157
aI265
asI962
(lp462
I158
aI266
asI963
(lp463
I159
aI267
asI964
(lp464
I160
aI268
asI965
(lp465
I161
aI269
asI966
(lp466
I162
aI270
asI967
(lp467
I163
aI271
asI968
(lp468
I164
aI272
asI969
(lp469
I165
aI273
asI970
(lp470
I166
aI274
asI971
(lp471
I167
aI275
asI972
(lp472
I168
aI276
asI973
(lp473
I169
aI277
asI974
(lp474
I170
aI278
asI975
(lp475
I171
aI279
asI976
(lp476
I172
aI280
asI977
(lp477
I173
aI281
asI978
(lp478
I174
aI282
asI979
(lp479
I175
aI283
asI980
(lp480
I176
aI284
asI981
(lp481
I177
aI285
asI982
(lp482
I178
aI286
asI983
(lp483
I179
aI287
asI984
(lp484
I180
aI216
asI985
(lp485
I181
aI217
asI986
(lp486
I182
aI218
asI987
(lp487
I183
aI219
asI988
(lp488
I184
aI220
asI989
(lp489
I185
aI221
asI990
(lp490
I186
aI222
asI991
(lp491
I187
aI223
asI992
(lp492
I188
aI224
asI993
(lp493
I189
aI225
asI994
(lp494
I190
aI226
asI995
(lp495
I191
aI227
asI996
(lp496
I192
aI228
asI997
(lp497
I193
aI229
asI998
(lp498
I194
aI230
asI999
(lp499
I195
aI231
asI1000
(lp500
I196
aI232
asI1001
(lp501
I197
aI233
asI1002
(lp502
I198
aI234
asI1003
(lp503
I199
aI235
asI1004
(lp504
I200
aI236
asI1005
(lp505
I201
aI237
asI1006
(lp506
I202
aI238
asI1007
(lp507
I203
aI239
asI1008
(lp508
I204
aI240
asI1009
(lp509
I205
aI241
asI1010
(lp510
I206
aI242
asI1011
(lp511
I207
aI243
asI1012
(lp512
I208
aI244
asI1013
(lp513
I209
aI245
asI1014
(lp514
I210
aI246
asI1015
(lp515
I211
aI247
asI1016
(lp516
I212
aI248
asI1017
(lp517
I213
aI249
asI1018
(lp518
I214
aI250
asI1019
(lp519
I215
aI251
asI1020
(lp520
I72
aI361
asI1021
(lp521
I73
aI360
asI1022
(lp522
I74
aI363
asI1023
(lp523
I75
aI362
asI1024
(lp524
I76
aI365
asI1025
(lp525
I77
aI364
asI1026
(lp526
I78
aI367
asI1027
(lp527
I79
aI366
asI1028
(lp528
I80
aI369
asI1029
(lp529
I81
aI368
asI1030
(lp530
I82
aI371
asI1031
(lp531
I83
aI370
asI1032
(lp532
I84
aI373
asI1033
(lp533
I85
aI372
asI1034
(lp534
I86
aI375
asI1035
(lp535
I87
aI374
asI1036
(lp536
I88
aI377
asI1037
(lp537
I89
aI376
asI1038
(lp538
I90
aI379
asI1039
(lp539
I91
aI378
asI1040
(lp540
I92
aI381
asI1041
(lp541
I93
aI380
asI1042
(lp542
I94
aI383
asI1043
(lp543
I95
aI382
asI1044
(lp544
I96
aI385
asI1045
(lp545
I97
aI384
asI1046
(lp546
I98
aI387
asI1047
(lp547
I99
aI386
asI1048
(lp548
I100
aI389
asI1049
(lp549
I101
aI388
asI1050
(lp550
I102
aI391
asI1051
(lp551
I103
aI390
asI1052
(lp552
I104
aI393
asI1053
(lp553
I105
aI392
asI1054
(lp554
I106
aI395
asI1055
(lp555
I107
aI394
asI1056
(lp556
I108
aI397
asI1057
(lp557
I109
aI396
asI1058
(lp558
I110
aI399
asI1059
(lp559
I111
aI398
asI1060
(lp560
I112
aI401
asI1061
(lp561
I113
aI400
asI1062
(lp562
I114
aI403
asI1063
(lp563
I115
aI402
asI1064
(lp564
I116
aI405
asI1065
(lp565
I117
aI404
asI1066
(lp566
I118
aI407
asI1067
(lp567
I119
aI406
asI1068
(lp568
I120
aI409
asI1069
(lp569
I121
aI408
asI1070
(lp570
I122
aI411
asI1071
(lp571
I123
aI410
asI1072
(lp572
I124
aI413
asI1073
(lp573
I125
aI412
asI1074
(lp574
I126
aI415
asI1075
(lp575
I127
aI414
asI1076
(lp576
I128
aI417
asI1077
(lp577
I129
aI416
asI1078
(lp578
I130
aI419
asI1079
(lp579
I131
aI418
asI1080
(lp580
I132
aI421
asI1081
(lp581
I133
aI420
asI1082
(lp582
I134
aI423
asI1083
(lp583
I135
aI422
asI1084
(lp584
I136
aI425
asI1085
(lp585
I137
aI424
asI1086
(lp586
I138
aI427
asI1087
(lp587
I139
aI426
asI1088
(lp588
I140
aI429
asI1089
(lp589
I141
aI428
asI1090
(lp590
I142
aI431
asI1091
(lp591
I143
aI430
asI1092
(lp592
I144
aI432
asI1093
(lp593
I145
aI433
asI1094
(lp594
I146
aI434
asI1095
(lp595
I147
aI435
asI1096
(lp596
I148
aI436
asI1097
(lp597
I149
aI437
asI1098
(lp598
I150
aI438
asI1099
(lp599
I151
aI439
asI1100
(lp600
I152
aI440
asI1101
(lp601
I153
aI441
asI1102
(lp602
I154
aI442
asI1103
(lp603
I155
aI443
asI1104
(lp604
I156
aI444
asI1105
(lp605
I157
aI445
asI1106
(lp606
I158
aI446
asI1107
(lp607
I159
aI447
asI1108
(lp608
I160
aI448
asI1109
(lp609
I161
aI449
asI1110
(lp610
I162
aI450
asI1111
(lp611
I163
aI451
asI1112
(lp612
I164
aI452
asI1113
(lp613
I165
aI453
asI1114
(lp614
I166
aI454
asI1115
(lp615
I167
aI455
asI1116
(lp616
I168
aI456
asI1117
(lp617
I169
aI457
asI1118
(lp618
I170
aI458
asI1119
(lp619
I171
aI459
asI1120
(lp620
I172
aI460
asI1121
(lp621
I173
aI461
asI1122
(lp622
I174
aI462
asI1123
(lp623
I175
aI463
asI1124
(lp624
I176
aI464
asI1125
(lp625
I177
aI465
asI1126
(lp626
I178
aI466
asI1127
(lp627
I179
aI467
asI1128
(lp628
I180
aI468
asI1129
(lp629
I181
aI469
asI1130
(lp630
I182
aI470
asI1131
(lp631
I183
aI471
asI1132
(lp632
I184
aI472
asI1133
(lp633
I185
aI473
asI1134
(lp634
I186
aI474
asI1135
(lp635
I187
aI475
asI1136
(lp636
I188
aI476
asI1137
(lp637
I189
aI477
asI1138
(lp638
I190
aI478
asI1139
(lp639
I191
aI479
asI1140
(lp640
I192
aI480
asI1141
(lp641
I193
aI481
asI1142
(lp642
I194
aI482
asI1143
(lp643
I195
aI483
asI1144
(lp644
I196
aI484
asI1145
(lp645
I197
aI485
asI1146
(lp646
I198
aI486
asI1147
(lp647
I199
aI487
asI1148
(lp648
I200
aI488
asI1149
(lp649
I201
aI489
asI1150
(lp650
I202
aI490
asI1151
(lp651
I203
aI491
asI1152
(lp652
I204
aI492
asI1153
(lp653
I205
aI493
asI1154
(lp654
I206
aI494
asI1155
(lp655
I207
aI495
asI1156
(lp656
I208
aI496
asI1157
(lp657
I209
aI497
asI1158
(lp658
I210
aI498
asI1159
(lp659
I211
aI499
asI1160
(lp660
I212
aI500
asI1161
(lp661
I213
aI501
asI1162
(lp662
I214
aI502
asI1163
(lp663
I215
aI503
asI1164
(lp664
I72
aI310
asI1165
(lp665
I73
aI311
asI1166
(lp666
I74
aI306
asI1167
(lp667
I75
aI307
asI1168
(lp668
I76
aI308
asI1169
(lp669
I77
aI309
asI1170
(lp670
I78
aI316
asI1171
(lp671
I79
aI317
asI1172
(lp672
I80
aI312
asI1173
(lp673
I81
aI313
asI1174
(lp674
I82
aI314
asI1175
(lp675
I83
aI315
asI1176
(lp676
I84
aI322
asI1177
(lp677
I85
aI323
asI1178
(lp678
I86
aI318
asI1179
(lp679
I87
aI319
asI1180
(lp680
I88
aI320
asI1181
(lp681
I89
aI321
asI1182
(lp682
I90
aI290
asI1183
(lp683
I91
aI291
asI1184
(lp684
I92
aI292
asI1185
(lp685
I93
aI293
asI1186
(lp686
I94
aI288
asI1187
(lp687
I95
aI289
asI1188
(lp688
I96
aI296
asI1189
(lp689
I97
aI297
asI1190
(lp690
I98
aI298
asI1191
(lp691
I99
aI299
asI1192
(lp692
I100
aI294
asI1193
(lp693
I101
aI295
asI1194
(lp694
I102
aI302
asI1195
(lp695
I103
aI303
asI1196
(lp696
I104
aI304
asI1197
(lp697
I105
aI305
asI1198
(lp698
I106
aI300
asI1199
(lp699
I107
aI301
asI1200
(lp700
I114
aI346
asI1201
(lp701
I115
aI347
asI1202
(lp702
I116
aI342
asI1203
(lp703
I117
aI343
asI1204
(lp704
I118
aI344
asI1205
(lp705
I119
aI345
asI1206
(lp706
I120
aI352
asI1207
(lp707
I121
aI353
asI1208
(lp708
I122
aI348
asI1209
(lp709
I123
aI349
asI1210
(lp710
I124
aI350
asI1211
(lp711
I125
aI351
asI1212
(lp712
I126
aI332
asI1213
(lp713
I127
aI333
asI1214
(lp714
I128
aI334
asI1215
(lp715
I129
aI335
asI1216
(lp716
I130
aI330
asI1217
(lp717
I131
aI331
asI1218
(lp718
I132
aI338
asI1219
(lp719
I133
aI339
asI1220
(lp720
I134
aI340
asI1221
(lp721
I135
aI341
asI1222
(lp722
I136
aI336
asI1223
(lp723
I137
aI337
asI1224
(lp724
I144
aI234
asI1225
(lp725
I145
aI235
asI1226
(lp726
I146
aI236
asI1227
(lp727
I147
aI237
asI1228
(lp728
I148
aI238
asI1229
(lp729
I149
aI239
asI1230
(lp730
I150
aI240
asI1231
(lp731
I151
aI241
asI1232
(lp732
I152
aI242
asI1233
(lp733
I153
aI243
asI1234
(lp734
I154
aI244
asI1235
(lp735
I155
aI245
asI1236
(lp736
I156
aI246
asI1237
(lp737
I157
aI247
asI1238
(lp738
I158
aI248
asI1239
(lp739
I159
aI249
asI1240
(lp740
I160
aI250
asI1241
(lp741
I161
aI251
asI1242
(lp742
I162
aI216
asI1243
(lp743
I163
aI217
asI1244
(lp744
I164
aI218
asI1245
(lp745
I165
aI219
asI1246
(lp746
I166
aI220
asI1247
(lp747
I167
aI221
asI1248
(lp748
I168
aI222
asI1249
(lp749
I169
aI223
asI1250
(lp750
I170
aI224
asI1251
(lp751
I171
aI225
asI1252
(lp752
I172
aI226
asI1253
(lp753
I173
aI227
asI1254
(lp754
I174
aI228
asI1255
(lp755
I175
aI229
asI1256
(lp756
I176
aI230
asI1257
(lp757
I177
aI231
asI1258
(lp758
I178
aI232
asI1259
(lp759
I179
aI233
asI1260
(lp760
I186
aI270
asI1261
(lp761
I187
aI271
asI1262
(lp762
I188
aI272
asI1263
(lp763
I189
aI273
asI1264
(lp764
I190
aI274
asI1265
(lp765
I191
aI275
asI1266
(lp766
I192
aI276
asI1267
(lp767
I193
aI277
asI1268
(lp768
I194
aI278
asI1269
(lp769
I195
aI279
asI1270
(lp770
I196
aI280
asI1271
(lp771
I197
aI281
asI1272
(lp772
I198
aI258
asI1273
(lp773
I199
aI259
asI1274
(lp774
I200
aI260
asI1275
(lp775
I201
aI261
asI1276
(lp776
I202
aI262
asI1277
(lp777
I203
aI263
asI1278
(lp778
I204
aI264
asI1279
(lp779
I205
aI265
asI1280
(lp780
I206
aI266
asI1281
(lp781
I207
aI267
asI1282
(lp782
I208
aI268
asI1283
(lp783
I209
aI269
asI1284
(lp784
I0
aI216
asI1285
(lp785
I1
aI217
asI1286
(lp786
I2
aI218
asI1287
(lp787
I3
aI219
asI1288
(lp788
I4
aI220
asI1289
(lp789
I5
aI221
asI1290
(lp790
I6
aI222
asI1291
(lp791
I7
aI223
asI1292
(lp792
I8
aI224
asI1293
(lp793
I9
aI225
asI1294
(lp794
I10
aI226
asI1295
(lp795
I11
aI227
asI1296
(lp796
I12
aI228
asI1297
(lp797
I13
aI229
asI1298
(lp798
I14
aI230
asI1299
(lp799
I15
aI231
asI1300
(lp800
I16
aI232
asI1301
(lp801
I17
aI233
asI1302
(lp802
I19
aI234
asI1303
(lp803
I18
aI235
asI1304
(lp804
I21
aI236
asI1305
(lp805
I20
aI237
asI1306
(lp806
I23
aI238
asI1307
(lp807
I22
aI239
asI1308
(lp808
I25
aI240
asI1309
(lp809
I24
aI241
asI1310
(lp810
I27
aI242
asI1311
(lp811
I26
aI243
asI1312
(lp812
I29
aI244
asI1313
(lp813
I28
aI245
asI1314
(lp814
I31
aI246
asI1315
(lp815
I30
aI247
asI1316
(lp816
I33
aI248
asI1317
(lp817
I32
aI249
asI1318
(lp818
I35
aI250
asI1319
(lp819
I34
aI251
asI1320
(lp820
I1
aI252
asI1321
(lp821
I0
aI253
asI1322
(lp822
I3
aI254
asI1323
(lp823
I2
aI255
asI1324
(lp824
I5
aI256
asI1325
(lp825
I4
aI257
asI1326
(lp826
I7
aI258
asI1327
(lp827
I6
aI259
asI1328
(lp828
I9
aI260
asI1329
(lp829
I8
aI261
asI1330
(lp830
I11
aI262
asI1331
(lp831
I10
aI263
asI1332
(lp832
I13
aI264
asI1333
(lp833
I12
aI265
asI1334
(lp834
I15
aI266
asI1335
(lp835
I14
aI267
asI1336
(lp836
I17
aI268
asI1337
(lp837
I16
aI269
asI1338
(lp838
I18
aI270
asI1339
(lp839
I19
aI271
asI1340
(lp840
I20
aI272
asI1341
(lp841
I21
aI273
asI1342
(lp842
I22
aI274
asI1343
(lp843
I23
aI275
asI1344
(lp844
I24
aI276
asI1345
(lp845
I25
aI277
asI1346
(lp846
I26
aI278
asI1347
(lp847
I27
aI279
asI1348
(lp848
I28
aI280
asI1349
(lp849
I29
aI281
asI1350
(lp850
I30
aI282
asI1351
(lp851
I31
aI283
asI1352
(lp852
I32
aI284
asI1353
(lp853
I33
aI285
asI1354
(lp854
I34
aI286
asI1355
(lp855
I35
aI287
asI1356
(lp856
I36
aI288
asI1357
(lp857
I37
aI289
asI1358
(lp858
I38
aI290
asI1359
(lp859
I39
aI291
asI1360
(lp860
I40
aI292
asI1361
(lp861
I41
aI293
asI1362
(lp862
I42
aI294
asI1363
(lp863
I43
aI295
asI1364
(lp864
I44
aI296
asI1365
(lp865
I45
aI297
asI1366
(lp866
I46
aI298
asI1367
(lp867
I47
aI299
asI1368
(lp868
I48
aI300
asI1369
(lp869
I49
aI301
asI1370
(lp870
I50
aI302
asI1371
(lp871
I51
aI303
asI1372
(lp872
I52
aI304
asI1373
(lp873
I53
aI305
asI1374
(lp874
I54
aI306
asI1375
(lp875
I55
aI307
asI1376
(lp876
I56
aI308
asI1377
(lp877
I57
aI309
asI1378
(lp878
I58
aI310
asI1379
(lp879
I59
aI311
asI1380
(lp880
I60
aI312
asI1381
(lp881
I61
aI313
asI1382
(lp882
I62
aI314
asI1383
(lp883
I63
aI315
asI1384
(lp884
I64
aI316
asI1385
(lp885
I65
aI317
asI1386
(lp886
I66
aI318
asI1387
(lp887
I67
aI319
asI1388
(lp888
I68
aI320
asI1389
(lp889
I69
aI321
asI1390
(lp890
I70
aI322
asI1391
(lp891
I71
aI323
asI1392
(lp892
I36
aI324
asI1393
(lp893
I37
aI325
asI1394
(lp894
I38
aI326
asI1395
(lp895
I39
aI327
asI1396
(lp896
I40
aI328
asI1397
(lp897
I41
aI329
asI1398
(lp898
I42
aI330
asI1399
(lp899
I43
aI331
asI1400
(lp900
I44
aI332
asI1401
(lp901
I45
aI333
asI1402
(lp902
I46
aI334
asI1403
(lp903
I47
aI335
asI1404
(lp904
I48
aI336
asI1405
(lp905
I49
aI337
asI1406
(lp906
I50
aI338
asI1407
(lp907
I51
aI339
asI1408
(lp908
I52
aI340
asI1409
(lp909
I53
aI341
asI1410
(lp910
I54
aI342
asI1411
(lp911
I55
aI343
asI1412
(lp912
I56
aI344
asI1413
(lp913
I57
aI345
asI1414
(lp914
I58
aI346
asI1415
(lp915
I59
aI347
asI1416
(lp916
I60
aI348
asI1417
(lp917
I61
aI349
asI1418
(lp918
I62
aI350
asI1419
(lp919
I63
aI351
asI1420
(lp920
I64
aI352
asI1421
(lp921
I65
aI353
asI1422
(lp922
I66
aI354
asI1423
(lp923
I67
aI355
asI1424
(lp924
I68
aI356
asI1425
(lp925
I69
aI357
asI1426
(lp926
I70
aI358
asI1427
(lp927
I71
aI359
asI1428
(lp928
I162
aI216
asI1429
(lp929
I163
aI217
asI1430
(lp930
I164
aI218
asI1431
(lp931
I165
aI219
asI1432
(lp932
I166
aI220
asI1433
(lp933
I167
aI221
asI1434
(lp934
I168
aI222
asI1435
(lp935
I169
aI223
asI1436
(lp936
I170
aI224
asI1437
(lp937
I171
aI225
asI1438
(lp938
I172
aI226
asI1439
(lp939
I173
aI227
asI1440
(lp940
I174
aI228
asI1441
(lp941
I175
aI229
asI1442
(lp942
I176
aI230
asI1443
(lp943
I177
aI231
asI1444
(lp944
I178
aI232
asI1445
(lp945
I179
aI233
asI1446
(lp946
I144
aI234
asI1447
(lp947
I145
aI235
asI1448
(lp948
I146
aI236
asI1449
(lp949
I147
aI237
asI1450
(lp950
I148
aI238
asI1451
(lp951
I149
aI239
asI1452
(lp952
I150
aI240
asI1453
(lp953
I151
aI241
asI1454
(lp954
I152
aI242
asI1455
(lp955
I153
aI243
asI1456
(lp956
I154
aI244
asI1457
(lp957
I155
aI245
asI1458
(lp958
I156
aI246
asI1459
(lp959
I157
aI247
asI1460
(lp960
I158
aI248
asI1461
(lp961
I159
aI249
asI1462
(lp962
I160
aI250
asI1463
(lp963
I161
aI251
asI1464
(lp964
I210
aI252
asI1465
(lp965
I211
aI253
asI1466
(lp966
I212
aI254
asI1467
(lp967
I213
aI255
asI1468
(lp968
I214
aI256
asI1469
(lp969
I215
aI257
asI1470
(lp970
I198
aI258
asI1471
(lp971
I199
aI259
asI1472
(lp972
I200
aI260
asI1473
(lp973
I201
aI261
asI1474
(lp974
I202
aI262
asI1475
(lp975
I203
aI263
asI1476
(lp976
I204
aI264
asI1477
(lp977
I205
aI265
asI1478
(lp978
I206
aI266
asI1479
(lp979
I207
aI267
asI1480
(lp980
I208
aI268
asI1481
(lp981
I209
aI269
asI1482
(lp982
I186
aI270
asI1483
(lp983
I187
aI271
asI1484
(lp984
I188
aI272
asI1485
(lp985
I189
aI273
asI1486
(lp986
I190
aI274
asI1487
(lp987
I191
aI275
asI1488
(lp988
I192
aI276
asI1489
(lp989
I193
aI277
asI1490
(lp990
I194
aI278
asI1491
(lp991
I195
aI279
asI1492
(lp992
I196
aI280
asI1493
(lp993
I197
aI281
asI1494
(lp994
I180
aI282
asI1495
(lp995
I181
aI283
asI1496
(lp996
I182
aI284
asI1497
(lp997
I183
aI285
asI1498
(lp998
I184
aI286
asI1499
(lp999
I185
aI287
asI1500
(lp1000
I94
aI288
asI1501
(lp1001
I95
aI289
asI1502
(lp1002
I90
aI290
asI1503
(lp1003
I91
aI291
asI1504
(lp1004
I92
aI292
asI1505
(lp1005
I93
aI293
asI1506
(lp1006
I100
aI294
asI1507
(lp1007
I101
aI295
asI1508
(lp1008
I96
aI296
asI1509
(lp1009
I97
aI297
asI1510
(lp1010
I98
aI298
asI1511
(lp1011
I99
aI299
asI1512
(lp1012
I106
aI300
asI1513
(lp1013
I107
aI301
asI1514
(lp1014
I102
aI302
asI1515
(lp1015
I103
aI303
asI1516
(lp1016
I104
aI304
asI1517
(lp1017
I105
aI305
asI1518
(lp1018
I74
aI306
asI1519
(lp1019
I75
aI307
asI1520
(lp1020
I76
aI308
asI1521
(lp1021
I77
aI309
asI1522
(lp1022
I72
aI310
asI1523
(lp1023
I73
aI311
asI1524
(lp1024
I80
aI312
asI1525
(lp1025
I81
aI313
asI1526
(lp1026
I82
aI314
asI1527
(lp1027
I83
aI315
asI1528
(lp1028
I78
aI316
asI1529
(lp1029
I79
aI317
asI1530
(lp1030
I86
aI318
asI1531
(lp1031
I87
aI319
asI1532
(lp1032
I88
aI320
asI1533
(lp1033
I89
aI321
asI1534
(lp1034
I84
aI322
asI1535
(lp1035
I85
aI323
asI1536
(lp1036
I142
aI324
asI1537
(lp1037
I143
aI325
asI1538
(lp1038
I138
aI326
asI1539
(lp1039
I139
aI327
asI1540
(lp1040
I140
aI328
asI1541
(lp1041
I141
aI329
asI1542
(lp1042
I130
aI330
asI1543
(lp1043
I131
aI331
asI1544
(lp1044
I126
aI332
asI1545
(lp1045
I127
aI333
asI1546
(lp1046
I128
aI334
asI1547
(lp1047
I129
aI335
asI1548
(lp1048
I136
aI336
asI1549
(lp1049
I137
aI337
asI1550
(lp1050
I132
aI338
asI1551
(lp1051
I133
aI339
asI1552
(lp1052
I134
aI340
asI1553
(lp1053
I135
aI341
asI1554
(lp1054
I116
aI342
asI1555
(lp1055
I117
aI343
asI1556
(lp1056
I118
aI344
asI1557
(lp1057
I119
aI345
asI1558
(lp1058
I114
aI346
asI1559
(lp1059
I115
aI347
asI1560
(lp1060
I122
aI348
asI1561
(lp1061
I123
aI349
asI1562
(lp1062
I124
aI350
asI1563
(lp1063
I125
aI351
asI1564
(lp1064
I120
aI352
asI1565
(lp1065
I121
aI353
asI1566
(lp1066
I110
aI354
asI1567
(lp1067
I111
aI355
asI1568
(lp1068
I112
aI356
asI1569
(lp1069
I113
aI357
asI1570
(lp1070
I108
aI358
asI1571
(lp1071
I109
aI359
asI1572
(lp1072
I216
aI432
asI1573
(lp1073
I217
aI433
asI1574
(lp1074
I218
aI434
asI1575
(lp1075
I219
aI435
asI1576
(lp1076
I220
aI436
asI1577
(lp1077
I221
aI437
asI1578
(lp1078
I222
aI438
asI1579
(lp1079
I223
aI439
asI1580
(lp1080
I224
aI440
asI1581
(lp1081
I225
aI441
asI1582
(lp1082
I226
aI442
asI1583
(lp1083
I227
aI443
asI1584
(lp1084
I228
aI444
asI1585
(lp1085
I229
aI445
asI1586
(lp1086
I230
aI446
asI1587
(lp1087
I231
aI447
asI1588
(lp1088
I232
aI448
asI1589
(lp1089
I233
aI449
asI1590
(lp1090
I234
aI450
asI1591
(lp1091
I235
aI451
asI1592
(lp1092
I236
aI452
asI1593
(lp1093
I237
aI453
asI1594
(lp1094
I238
aI454
asI1595
(lp1095
I239
aI455
asI1596
(lp1096
I240
aI456
asI1597
(lp1097
I241
aI457
asI1598
(lp1098
I242
aI458
asI1599
(lp1099
I243
aI459
asI1600
(lp1100
I244
aI460
asI1601
(lp1101
I245
aI461
asI1602
(lp1102
I246
aI462
asI1603
(lp1103
I247
aI463
asI1604
(lp1104
I248
aI464
asI1605
(lp1105
I249
aI465
asI1606
(lp1106
I250
aI466
asI1607
(lp1107
I251
aI467
asI1608
(lp1108
I252
aI468
asI1609
(lp1109
I253
aI469
asI1610
(lp1110
I254
aI470
asI1611
(lp1111
I255
aI471
asI1612
(lp1112
I256
aI472
asI1613
(lp1113
I257
aI473
asI1614
(lp1114
I258
aI474
asI1615
(lp1115
I259
aI475
asI1616
(lp1116
I260
aI476
asI1617
(lp1117
I261
aI477
asI1618
(lp1118
I262
aI478
asI1619
(lp1119
I263
aI479
asI1620
(lp1120
I264
aI480
asI1621
(lp1121
I265
aI481
asI1622
(lp1122
I266
aI482
asI1623
(lp1123
I267
aI483
asI1624
(lp1124
I268
aI484
asI1625
(lp1125
I269
aI485
asI1626
(lp1126
I270
aI486
asI1627
(lp1127
I271
aI487
asI1628
(lp1128
I272
aI488
asI1629
(lp1129
I273
aI489
asI1630
(lp1130
I274
aI490
asI1631
(lp1131
I275
aI491
asI1632
(lp1132
I276
aI492
asI1633
(lp1133
I277
aI493
asI1634
(lp1134
I278
aI494
asI1635
(lp1135
I279
aI495
asI1636
(lp1136
I280
aI496
asI1637
(lp1137
I281
aI497
asI1638
(lp1138
I282
aI498
asI1639
(lp1139
I283
aI499
asI1640
(lp1140
I284
aI500
asI1641
(lp1141
I285
aI501
asI1642
(lp1142
I286
aI502
asI1643
(lp1143
I287
aI503
asI1644
(lp1144
I288
aI360
asI1645
(lp1145
I289
aI361
asI1646
(lp1146
I290
aI362
asI1647
(lp1147
I291
aI363
asI1648
(lp1148
I292
aI364
asI1649
(lp1149
I293
aI365
asI1650
(lp1150
I294
aI366
asI1651
(lp1151
I295
aI367
asI1652
(lp1152
I296
aI368
asI1653
(lp1153
I297
aI369
asI1654
(lp1154
I298
aI370
asI1655
(lp1155
I299
aI371
asI1656
(lp1156
I300
aI372
asI1657
(lp1157
I301
aI373
asI1658
(lp1158
I302
aI374
asI1659
(lp1159
I303
aI375
asI1660
(lp1160
I304
aI376
asI1661
(lp1161
I305
aI377
asI1662
(lp1162
I306
aI378
asI1663
(lp1163
I307
aI379
asI1664
(lp1164
I308
aI380
asI1665
(lp1165
I309
aI381
asI1666
(lp1166
I310
aI382
asI1667
(lp1167
I311
aI383
asI1668
(lp1168
I312
aI384
asI1669
(lp1169
I313
aI385
asI1670
(lp1170
I314
aI386
asI1671
(lp1171
I315
aI387
asI1672
(lp1172
I316
aI388
asI1673
(lp1173
I317
aI389
asI1674
(lp1174
I318
aI390
asI1675
(lp1175
I319
aI391
asI1676
(lp1176
I320
aI392
asI1677
(lp1177
I321
aI393
asI1678
(lp1178
I322
aI394
asI1679
(lp1179
I323
aI395
asI1680
(lp1180
I324
aI396
asI1681
(lp1181
I325
aI397
asI1682
(lp1182
I326
aI398
asI1683
(lp1183
I327
aI399
asI1684
(lp1184
I328
aI400
asI1685
(lp1185
I329
aI401
asI1686
(lp1186
I330
aI402
asI1687
(lp1187
I331
aI403
asI1688
(lp1188
I332
aI404
asI1689
(lp1189
I333
aI405
asI1690
(lp1190
I334
aI406
asI1691
(lp1191
I335
aI407
asI1692
(lp1192
I336
aI408
asI1693
(lp1193
I337
aI409
asI1694
(lp1194
I338
aI410
asI1695
(lp1195
I339
aI411
asI1696
(lp1196
I340
aI412
asI1697
(lp1197
I341
aI413
asI1698
(lp1198
I342
aI414
asI1699
(lp1199
I343
aI415
asI1700
(lp1200
I344
aI416
asI1701
(lp1201
I345
aI417
asI1702
(lp1202
I346
aI418
asI1703
(lp1203
I347
aI419
asI1704
(lp1204
I348
aI420
asI1705
(lp1205
I349
aI421
asI1706
(lp1206
I350
aI422
asI1707
(lp1207
I351
aI423
asI1708
(lp1208
I352
aI424
asI1709
(lp1209
I353
aI425
asI1710
(lp1210
I354
aI426
asI1711
(lp1211
I355
aI427
asI1712
(lp1212
I356
aI428
asI1713
(lp1213
I357
aI429
asI1714
(lp1214
I358
aI430
asI1715
(lp1215
I359
aI431
asI1716
(lp1216
I180
aI216
asI1717
(lp1217
I181
aI217
asI1718
(lp1218
I182
aI218
asI1719
(lp1219
I183
aI219
asI1720
(lp1220
I184
aI220
asI1721
(lp1221
I185
aI221
asI1722
(lp1222
I186
aI222
asI1723
(lp1223
I187
aI223
asI1724
(lp1224
I188
aI224
asI1725
(lp1225
I189
aI225
asI1726
(lp1226
I190
aI226
asI1727
(lp1227
I191
aI227
asI1728
(lp1228
I192
aI228
asI1729
(lp1229
I193
aI229
asI1730
(lp1230
I194
aI230
asI1731
(lp1231
I195
aI231
asI1732
(lp1232
I196
aI232
asI1733
(lp1233
I197
aI233
asI1734
(lp1234
I198
aI234
asI1735
(lp1235
I199
aI235
asI1736
(lp1236
I200
aI236
asI1737
(lp1237
I201
aI237
asI1738
(lp1238
I202
aI238
asI1739
(lp1239
I203
aI239
asI1740
(lp1240
I204
aI240
asI1741
(lp1241
I205
aI241
asI1742
(lp1242
I206
aI242
asI1743
(lp1243
I207
aI243
asI1744
(lp1244
I208
aI244
asI1745
(lp1245
I209
aI245
asI1746
(lp1246
I210
aI246
asI1747
(lp1247
I211
aI247
asI1748
(lp1248
I212
aI248
asI1749
(lp1249
I213
aI249
asI1750
(lp1250
I214
aI250
asI1751
(lp1251
I215
aI251
asI1752
(lp1252
I144
aI252
asI1753
(lp1253
I145
aI253
asI1754
(lp1254
I146
aI254
asI1755
(lp1255
I147
aI255
asI1756
(lp1256
I148
aI256
asI1757
(lp1257
I149
aI257
asI1758
(lp1258
I150
aI258
asI1759
(lp1259
I151
aI259
asI1760
(lp1260
I152
aI260
asI1761
(lp1261
I153
aI261
asI1762
(lp1262
I154
aI262
asI1763
(lp1263
I155
aI263
asI1764
(lp1264
I156
aI264
asI1765
(lp1265
I157
aI265
asI1766
(lp1266
I158
aI266
asI1767
(lp1267
I159
aI267
asI1768
(lp1268
I160
aI268
asI1769
(lp1269
I161
aI269
asI1770
(lp1270
I162
aI270
asI1771
(lp1271
I163
aI271
asI1772
(lp1272
I164
aI272
asI1773
(lp1273
I165
aI273
asI1774
(lp1274
I166
aI274
asI1775
(lp1275
I167
aI275
asI1776
(lp1276
I168
aI276
asI1777
(lp1277
I169
aI277
asI1778
(lp1278
I170
aI278
asI1779
(lp1279
I171
aI279
asI1780
(lp1280
I172
aI280
asI1781
(lp1281
I173
aI281
asI1782
(lp1282
I174
aI282
asI1783
(lp1283
I175
aI283
asI1784
(lp1284
I176
aI284
asI1785
(lp1285
I177
aI285
asI1786
(lp1286
I178
aI286
asI1787
(lp1287
I179
aI287
asI1788
(lp1288
I108
aI288
asI1789
(lp1289
I109
aI289
asI1790
(lp1290
I110
aI290
asI1791
(lp1291
I111
aI291
asI1792
(lp1292
I112
aI292
asI1793
(lp1293
I113
aI293
asI1794
(lp1294
I114
aI294
asI1795
(lp1295
I115
aI295
asI1796
(lp1296
I116
aI296
asI1797
(lp1297
I117
aI297
asI1798
(lp1298
I118
aI298
asI1799
(lp1299
I119
aI299
asI1800
(lp1300
I120
aI300
asI1801
(lp1301
I121
aI301
asI1802
(lp1302
I122
aI302
asI1803
(lp1303
I123
aI303
asI1804
(lp1304
I124
aI304
asI1805
(lp1305
I125
aI305
asI1806
(lp1306
I126
aI306
asI1807
(lp1307
I127
aI307
asI1808
(lp1308
I128
aI308
asI1809
(lp1309
I129
aI309
asI1810
(lp1310
I130
aI310
asI1811
(lp1311
I131
aI311
asI1812
(lp1312
I132
aI312
asI1813
(lp1313
I133
aI313
asI1814
(lp1314
I134
aI314
asI1815
(lp1315
I135
aI315
asI1816
(lp1316
I136
aI316
asI1817
(lp1317
I137
aI317
asI1818
(lp1318
I138
aI318
asI1819
(lp1319
I139
aI319
asI1820
(lp1320
I140
aI320
asI1821
(lp1321
I141
aI321
asI1822
(lp1322
I142
aI322
asI1823
(lp1323
I143
aI323
asI1824
(lp1324
I72
aI324
asI1825
(lp1325
I73
aI325
asI1826
(lp1326
I74
aI326
asI1827
(lp1327
I75
aI327
asI1828
(lp1328
I76
aI328
asI1829
(lp1329
I77
aI329
asI1830
(lp1330
I78
aI330
asI1831
(lp1331
I79
aI331
asI1832
(lp1332
I80
aI332
asI1833
(lp1333
I81
aI333
asI1834
(lp1334
I82
aI334
asI1835
(lp1335
I83
aI335
asI1836
(lp1336
I84
aI336
asI1837
(lp1337
I85
aI337
asI1838
(lp1338
I86
aI338
asI1839
(lp1339
I87
aI339
asI1840
(lp1340
I88
aI340
asI1841
(lp1341
I89
aI341
asI1842
(lp1342
I90
aI342
asI1843
(lp1343
I91
aI343
asI1844
(lp1344
I92
aI344
asI1845
(lp1345
I93
aI345
asI1846
(lp1346
I94
aI346
asI1847
(lp1347
I95
aI347
asI1848
(lp1348
I96
aI348
asI1849
(lp1349
I97
aI349
asI1850
(lp1350
I98
aI350
asI1851
(lp1351
I99
aI351
asI1852
(lp1352
I100
aI352
asI1853
(lp1353
I101
aI353
asI1854
(lp1354
I102
aI354
asI1855
(lp1355
I103
aI355
asI1856
(lp1356
I104
aI356
asI1857
(lp1357
I105
aI357
asI1858
(lp1358
I106
aI358
asI1859
(lp1359
I107
aI359
asI1860
(lp1360
I73
aI360
asI1861
(lp1361
I75
aI362
asI1862
(lp1362
I77
aI364
asI1863
(lp1363
I79
aI366
asI1864
(lp1364
I81
aI368
asI1865
(lp1365
I83
aI370
asI1866
(lp1366
I85
aI372
asI1867
(lp1367
I87
aI374
asI1868
(lp1368
I89
aI376
asI1869
(lp1369
I90
aI379
asI1870
(lp1370
I92
aI381
asI1871
(lp1371
I94
aI383
asI1872
(lp1372
I96
aI385
asI1873
(lp1373
I98
aI387
asI1874
(lp1374
I100
aI389
asI1875
(lp1375
I102
aI391
asI1876
(lp1376
I104
aI393
asI1877
(lp1377
I106
aI395
asI1878
(lp1378
I108
aI397
asI1879
(lp1379
I110
aI399
asI1880
(lp1380
I112
aI401
asI1881
(lp1381
I114
aI403
asI1882
(lp1382
I116
aI405
asI1883
(lp1383
I118
aI407
asI1884
(lp1384
I120
aI409
asI1885
(lp1385
I122
aI411
asI1886
(lp1386
I124
aI413
asI1887
(lp1387
I127
aI414
asI1888
(lp1388
I129
aI416
asI1889
(lp1389
I131
aI418
asI1890
(lp1390
I133
aI420
asI1891
(lp1391
I135
aI422
asI1892
(lp1392
I137
aI424
asI1893
(lp1393
I139
aI426
asI1894
(lp1394
I141
aI428
asI1895
(lp1395
I143
aI430
asI1896
(lp1396
I144
aI432
asI1897
(lp1397
I145
aI433
asI1898
(lp1398
I146
aI434
asI1899
(lp1399
I147
aI435
asI1900
(lp1400
I148
aI436
asI1901
(lp1401
I149
aI437
asI1902
(lp1402
I150
aI438
asI1903
(lp1403
I151
aI439
asI1904
(lp1404
I152
aI440
asI1905
(lp1405
I153
aI441
asI1906
(lp1406
I154
aI442
asI1907
(lp1407
I155
aI443
asI1908
(lp1408
I156
aI444
asI1909
(lp1409
I157
aI445
asI1910
(lp1410
I158
aI446
asI1911
(lp1411
I159
aI447
asI1912
(lp1412
I160
aI448
asI1913
(lp1413
I161
aI449
asI1914
(lp1414
I162
aI450
asI1915
(lp1415
I163
aI451
asI1916
(lp1416
I164
aI452
asI1917
(lp1417
I165
aI453
asI1918
(lp1418
I166
aI454
asI1919
(lp1419
I167
aI455
asI1920
(lp1420
I168
aI456
asI1921
(lp1421
I169
aI457
asI1922
(lp1422
I170
aI458
asI1923
(lp1423
I171
aI459
asI1924
(lp1424
I172
aI460
asI1925
(lp1425
I173
aI461
asI1926
(lp1426
I174
aI462
asI1927
(lp1427
I175
aI463
asI1928
(lp1428
I176
aI464
asI1929
(lp1429
I177
aI465
asI1930
(lp1430
I178
aI466
asI1931
(lp1431
I179
aI467
asI1932
(lp1432
I180
aI468
asI1933
(lp1433
I181
aI469
asI1934
(lp1434
I182
aI470
asI1935
(lp1435
I183
aI471
asI1936
(lp1436
I184
aI472
asI1937
(lp1437
I185
aI473
asI1938
(lp1438
I186
aI474
asI1939
(lp1439
I187
aI475
asI1940
(lp1440
I188
aI476
asI1941
(lp1441
I189
aI477
asI1942
(lp1442
I190
aI478
asI1943
(lp1443
I191
aI479
asI1944
(lp1444
I192
aI480
asI1945
(lp1445
I193
aI481
asI1946
(lp1446
I194
aI482
asI1947
(lp1447
I195
aI483
asI1948
(lp1448
I196
aI484
asI1949
(lp1449
I197
aI485
asI1950
(lp1450
I198
aI486
asI1951
(lp1451
I199
aI487
asI1952
(lp1452
I200
aI488
asI1953
(lp1453
I201
aI489
asI1954
(lp1454
I202
aI490
asI1955
(lp1455
I203
aI491
asI1956
(lp1456
I204
aI492
asI1957
(lp1457
I205
aI493
asI1958
(lp1458
I206
aI494
asI1959
(lp1459
I207
aI495
asI1960
(lp1460
I208
aI496
asI1961
(lp1461
I209
aI497
asI1962
(lp1462
I210
aI498
asI1963
(lp1463
I211
aI499
asI1964
(lp1464
I212
aI500
asI1965
(lp1465
I213
aI501
asI1966
(lp1466
I214
aI502
asI1967
(lp1467
I215
aI503
asI1968
(lp1468
I360
aI397
asI1969
(lp1469
I361
aI396
asI1970
(lp1470
I362
aI399
asI1971
(lp1471
I363
aI398
asI1972
(lp1472
I364
aI401
asI1973
(lp1473
I365
aI400
asI1974
(lp1474
I366
aI403
asI1975
(lp1475
I367
aI402
asI1976
(lp1476
I368
aI405
asI1977
(lp1477
I369
aI404
asI1978
(lp1478
I370
aI407
asI1979
(lp1479
I371
aI406
asI1980
(lp1480
I372
aI409
asI1981
(lp1481
I373
aI408
asI1982
(lp1482
I374
aI411
asI1983
(lp1483
I375
aI410
asI1984
(lp1484
I376
aI413
asI1985
(lp1485
I377
aI412
asI1986
(lp1486
I378
aI415
asI1987
(lp1487
I379
aI414
asI1988
(lp1488
I380
aI417
asI1989
(lp1489
I381
aI416
asI1990
(lp1490
I382
aI419
asI1991
(lp1491
I383
aI418
asI1992
(lp1492
I384
aI421
asI1993
(lp1493
I385
aI420
asI1994
(lp1494
I386
aI423
asI1995
(lp1495
I387
aI422
asI1996
(lp1496
I388
aI425
asI1997
(lp1497
I389
aI424
asI1998
(lp1498
I390
aI427
asI1999
(lp1499
I391
aI426
asI2000
(lp1500
I392
aI429
asI2001
(lp1501
I393
aI428
asI2002
(lp1502
I394
aI431
asI2003
(lp1503
I395
aI430
asI2004
(lp1504
I361
aI396
asI2005
(lp1505
I360
aI397
asI2006
(lp1506
I363
aI398
asI2007
(lp1507
I362
aI399
asI2008
(lp1508
I365
aI400
asI2009
(lp1509
I364
aI401
asI2010
(lp1510
I367
aI402
asI2011
(lp1511
I366
aI403
asI2012
(lp1512
I369
aI404
asI2013
(lp1513
I368
aI405
asI2014
(lp1514
I371
aI406
asI2015
(lp1515
I370
aI407
asI2016
(lp1516
I373
aI408
asI2017
(lp1517
I372
aI409
asI2018
(lp1518
I375
aI410
asI2019
(lp1519
I374
aI411
asI2020
(lp1520
I377
aI412
asI2021
(lp1521
I376
aI413
asI2022
(lp1522
I379
aI414
asI2023
(lp1523
I378
aI415
asI2024
(lp1524
I381
aI416
asI2025
(lp1525
I380
aI417
asI2026
(lp1526
I383
aI418
asI2027
(lp1527
I382
aI419
asI2028
(lp1528
I385
aI420
asI2029
(lp1529
I384
aI421
asI2030
(lp1530
I387
aI422
asI2031
(lp1531
I386
aI423
asI2032
(lp1532
I389
aI424
asI2033
(lp1533
I388
aI425
asI2034
(lp1534
I391
aI426
asI2035
(lp1535
I390
aI427
asI2036
(lp1536
I393
aI428
asI2037
(lp1537
I392
aI429
asI2038
(lp1538
I395
aI430
asI2039
(lp1539
I394
aI431
asI2040
(lp1540
I432
aI468
asI2041
(lp1541
I433
aI469
asI2042
(lp1542
I434
aI470
asI2043
(lp1543
I435
aI471
asI2044
(lp1544
I436
aI472
asI2045
(lp1545
I437
aI473
asI2046
(lp1546
I438
aI474
asI2047
(lp1547
I439
aI475
asI2048
(lp1548
I440
aI476
asI2049
(lp1549
I441
aI477
asI2050
(lp1550
I442
aI478
asI2051
(lp1551
I443
aI479
asI2052
(lp1552
I444
aI480
asI2053
(lp1553
I445
aI481
asI2054
(lp1554
I446
aI482
asI2055
(lp1555
I447
aI483
asI2056
(lp1556
I448
aI484
asI2057
(lp1557
I449
aI485
asI2058
(lp1558
I450
aI486
asI2059
(lp1559
I451
aI487
asI2060
(lp1560
I452
aI488
asI2061
(lp1561
I453
aI489
asI2062
(lp1562
I454
aI490
asI2063
(lp1563
I455
aI491
asI2064
(lp1564
I456
aI492
asI2065
(lp1565
I457
aI493
asI2066
(lp1566
I458
aI494
asI2067
(lp1567
I459
aI495
asI2068
(lp1568
I460
aI496
asI2069
(lp1569
I461
aI497
asI2070
(lp1570
I462
aI498
asI2071
(lp1571
I463
aI499
asI2072
(lp1572
I464
aI500
asI2073
(lp1573
I465
aI501
asI2074
(lp1574
I466
aI502
asI2075
(lp1575
I467
aI503
asI2076
(lp1576
I432
aI468
asI2077
(lp1577
I433
aI469
asI2078
(lp1578
I434
aI470
asI2079
(lp1579
I435
aI471
asI2080
(lp1580
I436
aI472
asI2081
(lp1581
I437
aI473
asI2082
(lp1582
I438
aI474
asI2083
(lp1583
I439
aI475
asI2084
(lp1584
I440
aI476
asI2085
(lp1585
I441
aI477
asI2086
(lp1586
I442
aI478
asI2087
(lp1587
I443
aI479
asI2088
(lp1588
I444
aI480
asI2089
(lp1589
I445
aI481
asI2090
(lp1590
I446
aI482
asI2091
(lp1591
I447
aI483
asI2092
(lp1592
I448
aI484
asI2093
(lp1593
I449
aI485
asI2094
(lp1594
I450
aI486
asI2095
(lp1595
I451
aI487
asI2096
(lp1596
I452
aI488
asI2097
(lp1597
I453
aI489
asI2098
(lp1598
I454
aI490
asI2099
(lp1599
I455
aI491
asI2100
(lp1600
I456
aI492
asI2101
(lp1601
I457
aI493
asI2102
(lp1602
I458
aI494
asI2103
(lp1603
I459
aI495
asI2104
(lp1604
I460
aI496
asI2105
(lp1605
I461
aI497
asI2106
(lp1606
I462
aI498
asI2107
(lp1607
I463
aI499
asI2108
(lp1608
I464
aI500
asI2109
(lp1609
I465
aI501
asI2110
(lp1610
I466
aI502
asI2111
(lp1611
I467
aI503
asI2112
(lp1612
I288
aI360
asI2113
(lp1613
I289
aI361
asI2114
(lp1614
I290
aI362
asI2115
(lp1615
I291
aI363
asI2116
(lp1616
I292
aI364
asI2117
(lp1617
I293
aI365
asI2118
(lp1618
I294
aI366
asI2119
(lp1619
I295
aI367
asI2120
(lp1620
I296
aI368
asI2121
(lp1621
I297
aI369
asI2122
(lp1622
I298
aI370
asI2123
(lp1623
I299
aI371
asI2124
(lp1624
I300
aI372
asI2125
(lp1625
I301
aI373
asI2126
(lp1626
I302
aI374
asI2127
(lp1627
I303
aI375
asI2128
(lp1628
I304
aI376
asI2129
(lp1629
I305
aI377
asI2130
(lp1630
I306
aI378
asI2131
(lp1631
I307
aI379
asI2132
(lp1632
I308
aI380
asI2133
(lp1633
I309
aI381
asI2134
(lp1634
I310
aI382
asI2135
(lp1635
I311
aI383
asI2136
(lp1636
I312
aI384
asI2137
(lp1637
I313
aI385
asI2138
(lp1638
I314
aI386
asI2139
(lp1639
I315
aI387
asI2140
(lp1640
I316
aI388
asI2141
(lp1641
I317
aI389
asI2142
(lp1642
I318
aI390
asI2143
(lp1643
I319
aI391
asI2144
(lp1644
I320
aI392
asI2145
(lp1645
I321
aI393
asI2146
(lp1646
I322
aI394
asI2147
(lp1647
I323
aI395
asI2148
(lp1648
I324
aI396
asI2149
(lp1649
I325
aI397
asI2150
(lp1650
I326
aI398
asI2151
(lp1651
I327
aI399
asI2152
(lp1652
I328
aI400
asI2153
(lp1653
I329
aI401
asI2154
(lp1654
I330
aI402
asI2155
(lp1655
I331
aI403
asI2156
(lp1656
I332
aI404
asI2157
(lp1657
I333
aI405
asI2158
(lp1658
I334
aI406
asI2159
(lp1659
I335
aI407
asI2160
(lp1660
I336
aI408
asI2161
(lp1661
I337
aI409
asI2162
(lp1662
I338
aI410
asI2163
(lp1663
I339
aI411
asI2164
(lp1664
I340
aI412
asI2165
(lp1665
I341
aI413
asI2166
(lp1666
I342
aI414
asI2167
(lp1667
I343
aI415
asI2168
(lp1668
I344
aI416
asI2169
(lp1669
I345
aI417
asI2170
(lp1670
I346
aI418
asI2171
(lp1671
I347
aI419
asI2172
(lp1672
I348
aI420
asI2173
(lp1673
I349
aI421
asI2174
(lp1674
I350
aI422
asI2175
(lp1675
I351
aI423
asI2176
(lp1676
I352
aI424
asI2177
(lp1677
I353
aI425
asI2178
(lp1678
I354
aI426
asI2179
(lp1679
I355
aI427
asI2180
(lp1680
I356
aI428
asI2181
(lp1681
I357
aI429
asI2182
(lp1682
I358
aI430
asI2183
(lp1683
I359
aI431
asI2184
(lp1684
I216
aI432
asI2185
(lp1685
I217
aI433
asI2186
(lp1686
I218
aI434
asI2187
(lp1687
I219
aI435
asI2188
(lp1688
I220
aI436
asI2189
(lp1689
I221
aI437
asI2190
(lp1690
I222
aI438
asI2191
(lp1691
I223
aI439
asI2192
(lp1692
I224
aI440
asI2193
(lp1693
I225
aI441
asI2194
(lp1694
I226
aI442
asI2195
(lp1695
I227
aI443
asI2196
(lp1696
I228
aI444
asI2197
(lp1697
I229
aI445
asI2198
(lp1698
I230
aI446
asI2199
(lp1699
I231
aI447
asI2200
(lp1700
I232
aI448
asI2201
(lp1701
I233
aI449
asI2202
(lp1702
I234
aI450
asI2203
(lp1703
I235
aI451
asI2204
(lp1704
I236
aI452
asI2205
(lp1705
I237
aI453
asI2206
(lp1706
I238
aI454
asI2207
(lp1707
I239
aI455
asI2208
(lp1708
I240
aI456
asI2209
(lp1709
I241
aI457
asI2210
(lp1710
I242
aI458
asI2211
(lp1711
I243
aI459
asI2212
(lp1712
I244
aI460
asI2213
(lp1713
I245
aI461
asI2214
(lp1714
I246
aI462
asI2215
(lp1715
I247
aI463
asI2216
(lp1716
I248
aI464
asI2217
(lp1717
I249
aI465
asI2218
(lp1718
I250
aI466
asI2219
(lp1719
I251
aI467
asI2220
(lp1720
I252
aI468
asI2221
(lp1721
I253
aI469
asI2222
(lp1722
I254
aI470
asI2223
(lp1723
I255
aI471
asI2224
(lp1724
I256
aI472
asI2225
(lp1725
I257
aI473
asI2226
(lp1726
I258
aI474
asI2227
(lp1727
I259
aI475
asI2228
(lp1728
I260
aI476
asI2229
(lp1729
I261
aI477
asI2230
(lp1730
I262
aI478
asI2231
(lp1731
I263
aI479
asI2232
(lp1732
I264
aI480
asI2233
(lp1733
I265
aI481
asI2234
(lp1734
I266
aI482
asI2235
(lp1735
I267
aI483
asI2236
(lp1736
I268
aI484
asI2237
(lp1737
I269
aI485
asI2238
(lp1738
I270
aI486
asI2239
(lp1739
I271
aI487
asI2240
(lp1740
I272
aI488
asI2241
(lp1741
I273
aI489
asI2242
(lp1742
I274
aI490
asI2243
(lp1743
I275
aI491
asI2244
(lp1744
I276
aI492
asI2245
(lp1745
I277
aI493
asI2246
(lp1746
I278
aI494
asI2247
(lp1747
I279
aI495
asI2248
(lp1748
I280
aI496
asI2249
(lp1749
I281
aI497
asI2250
(lp1750
I282
aI498
asI2251
(lp1751
I283
aI499
asI2252
(lp1752
I284
aI500
asI2253
(lp1753
I285
aI501
asI2254
(lp1754
I286
aI502
asI2255
(lp1755
I287
aI503
asI2256
(lp1756
I360
aI379
asI2257
(lp1757
I361
aI378
asI2258
(lp1758
I362
aI381
asI2259
(lp1759
I363
aI380
asI2260
(lp1760
I364
aI383
asI2261
(lp1761
I365
aI382
asI2262
(lp1762
I366
aI385
asI2263
(lp1763
I367
aI384
asI2264
(lp1764
I368
aI387
asI2265
(lp1765
I369
aI386
asI2266
(lp1766
I370
aI389
asI2267
(lp1767
I371
aI388
asI2268
(lp1768
I372
aI391
asI2269
(lp1769
I373
aI390
asI2270
(lp1770
I374
aI393
asI2271
(lp1771
I375
aI392
asI2272
(lp1772
I376
aI395
asI2273
(lp1773
I377
aI394
asI2274
(lp1774
I361
aI378
asI2275
(lp1775
I360
aI379
asI2276
(lp1776
I363
aI380
asI2277
(lp1777
I362
aI381
asI2278
(lp1778
I365
aI382
asI2279
(lp1779
I364
aI383
asI2280
(lp1780
I367
aI384
asI2281
(lp1781
I366
aI385
asI2282
(lp1782
I369
aI386
asI2283
(lp1783
I368
aI387
asI2284
(lp1784
I371
aI388
asI2285
(lp1785
I370
aI389
asI2286
(lp1786
I373
aI390
asI2287
(lp1787
I372
aI391
asI2288
(lp1788
I375
aI392
asI2289
(lp1789
I374
aI393
asI2290
(lp1790
I377
aI394
asI2291
(lp1791
I376
aI395
asI2292
(lp1792
I396
aI427
asI2293
(lp1793
I397
aI426
asI2294
(lp1794
I398
aI429
asI2295
(lp1795
I399
aI428
asI2296
(lp1796
I400
aI431
asI2297
(lp1797
I401
aI430
asI2298
(lp1798
I402
aI415
asI2299
(lp1799
I403
aI414
asI2300
(lp1800
I404
aI417
asI2301
(lp1801
I405
aI416
asI2302
(lp1802
I406
aI419
asI2303
(lp1803
I407
aI418
asI2304
(lp1804
I408
aI421
asI2305
(lp1805
I409
aI420
asI2306
(lp1806
I410
aI423
asI2307
(lp1807
I411
aI422
asI2308
(lp1808
I412
aI425
asI2309
(lp1809
I413
aI424
asI2310
(lp1810
I403
aI414
asI2311
(lp1811
I402
aI415
asI2312
(lp1812
I405
aI416
asI2313
(lp1813
I404
aI417
asI2314
(lp1814
I407
aI418
asI2315
(lp1815
I406
aI419
asI2316
(lp1816
I409
aI420
asI2317
(lp1817
I408
aI421
asI2318
(lp1818
I411
aI422
asI2319
(lp1819
I410
aI423
asI2320
(lp1820
I413
aI424
asI2321
(lp1821
I412
aI425
asI2322
(lp1822
I397
aI426
asI2323
(lp1823
I396
aI427
asI2324
(lp1824
I399
aI428
asI2325
(lp1825
I398
aI429
asI2326
(lp1826
I401
aI430
asI2327
(lp1827
I400
aI431
asI2328
(lp1828
I432
aI452
asI2329
(lp1829
I433
aI453
asI2330
(lp1830
I434
aI454
asI2331
(lp1831
I435
aI455
asI2332
(lp1832
I436
aI450
asI2333
(lp1833
I437
aI451
asI2334
(lp1834
I438
aI458
asI2335
(lp1835
I439
aI459
asI2336
(lp1836
I440
aI460
asI2337
(lp1837
I441
aI461
asI2338
(lp1838
I442
aI456
asI2339
(lp1839
I443
aI457
asI2340
(lp1840
I444
aI464
asI2341
(lp1841
I445
aI465
asI2342
(lp1842
I446
aI466
asI2343
(lp1843
I447
aI467
asI2344
(lp1844
I448
aI462
asI2345
(lp1845
I449
aI463
asI2346
(lp1846
I436
aI450
asI2347
(lp1847
I437
aI451
asI2348
(lp1848
I432
aI452
asI2349
(lp1849
I433
aI453
asI2350
(lp1850
I434
aI454
asI2351
(lp1851
I435
aI455
asI2352
(lp1852
I442
aI456
asI2353
(lp1853
I443
aI457
asI2354
(lp1854
I438
aI458
asI2355
(lp1855
I439
aI459
asI2356
(lp1856
I440
aI460
asI2357
(lp1857
I441
aI461
asI2358
(lp1858
I448
aI462
asI2359
(lp1859
I449
aI463
asI2360
(lp1860
I444
aI464
asI2361
(lp1861
I445
aI465
asI2362
(lp1862
I446
aI466
asI2363
(lp1863
I447
aI467
asI2364
(lp1864
I468
aI500
asI2365
(lp1865
I469
aI501
asI2366
(lp1866
I470
aI502
asI2367
(lp1867
I471
aI503
asI2368
(lp1868
I472
aI498
asI2369
(lp1869
I473
aI499
asI2370
(lp1870
I474
aI488
asI2371
(lp1871
I475
aI489
asI2372
(lp1872
I476
aI490
asI2373
(lp1873
I477
aI491
asI2374
(lp1874
I478
aI486
asI2375
(lp1875
I479
aI487
asI2376
(lp1876
I480
aI494
asI2377
(lp1877
I481
aI495
asI2378
(lp1878
I482
aI496
asI2379
(lp1879
I483
aI497
asI2380
(lp1880
I484
aI492
asI2381
(lp1881
I485
aI493
asI2382
(lp1882
I478
aI486
asI2383
(lp1883
I479
aI487
asI2384
(lp1884
I474
aI488
asI2385
(lp1885
I475
aI489
asI2386
(lp1886
I476
aI490
asI2387
(lp1887
I477
aI491
asI2388
(lp1888
I484
aI492
asI2389
(lp1889
I485
aI493
asI2390
(lp1890
I480
aI494
asI2391
(lp1891
I481
aI495
asI2392
(lp1892
I482
aI496
asI2393
(lp1893
I483
aI497
asI2394
(lp1894
I472
aI498
asI2395
(lp1895
I473
aI499
asI2396
(lp1896
I468
aI500
asI2397
(lp1897
I469
aI501
asI2398
(lp1898
I470
aI502
asI2399
(lp1899
I471
aI503
asI2400
(lp1900
I0
aI111
asI2401
(lp1901
I0
aI253
asI2402
(lp1902
I2
aI113
asI2403
(lp1903
I2
aI255
asI2404
(lp1904
I4
aI109
asI2405
(lp1905
I4
aI257
asI2406
(lp1906
I6
aI117
asI2407
(lp1907
I6
aI259
asI2408
(lp1908
I8
aI119
asI2409
(lp1909
I8
aI261
asI2410
(lp1910
I10
aI115
asI2411
(lp1911
I10
aI263
asI2412
(lp1912
I12
aI123
asI2413
(lp1913
I12
aI265
asI2414
(lp1914
I14
aI125
asI2415
(lp1915
I14
aI267
asI2416
(lp1916
I16
aI121
asI2417
(lp1917
I16
aI269
asI2418
(lp1918
I18
aI95
asI2419
(lp1919
I18
aI235
asI2420
(lp1920
I20
aI91
asI2421
(lp1921
I20
aI237
asI2422
(lp1922
I22
aI93
asI2423
(lp1923
I22
aI239
asI2424
(lp1924
I24
aI101
asI2425
(lp1925
I24
aI241
asI2426
(lp1926
I26
aI97
asI2427
(lp1927
I26
aI243
asI2428
(lp1928
I28
aI99
asI2429
(lp1929
I28
aI245
asI2430
(lp1930
I30
aI107
asI2431
(lp1931
I30
aI247
asI2432
(lp1932
I32
aI103
asI2433
(lp1933
I32
aI249
asI2434
(lp1934
I34
aI105
asI2435
(lp1935
I34
aI251
asI2436
(lp1936
I4
aI72
asI2437
(lp1937
I5
aI73
asI2438
(lp1938
I10
aI78
asI2439
(lp1939
I11
aI79
asI2440
(lp1940
I16
aI84
asI2441
(lp1941
I17
aI85
asI2442
(lp1942
I19
aI94
asI2443
(lp1943
I18
aI95
asI2444
(lp1944
I25
aI100
asI2445
(lp1945
I24
aI101
asI2446
(lp1946
I31
aI106
asI2447
(lp1947
I30
aI107
asI2448
(lp1948
I108
aI358
asI2449
(lp1949
I5
aI108
asI2450
(lp1950
I109
aI359
asI2451
(lp1951
I4
aI109
asI2452
(lp1952
I110
aI354
asI2453
(lp1953
I111
aI355
asI2454
(lp1954
I112
aI356
asI2455
(lp1955
I113
aI357
asI2456
(lp1956
I11
aI114
asI2457
(lp1957
I10
aI115
asI2458
(lp1958
I17
aI120
asI2459
(lp1959
I16
aI121
asI2460
(lp1960
I18
aI130
asI2461
(lp1961
I19
aI131
asI2462
(lp1962
I24
aI136
asI2463
(lp1963
I25
aI137
asI2464
(lp1964
I138
aI326
asI2465
(lp1965
I139
aI327
asI2466
(lp1966
I140
aI328
asI2467
(lp1967
I141
aI329
asI2468
(lp1968
I30
aI142
asI2469
(lp1969
I142
aI324
asI2470
(lp1970
I31
aI143
asI2471
(lp1971
I143
aI325
asI2472
(lp1972
I180
aI282
asI2473
(lp1973
I181
aI283
asI2474
(lp1974
I182
aI284
asI2475
(lp1975
I183
aI285
asI2476
(lp1976
I184
aI286
asI2477
(lp1977
I185
aI287
asI2478
(lp1978
I210
aI252
asI2479
(lp1979
I211
aI253
asI2480
(lp1980
I212
aI254
asI2481
(lp1981
I213
aI255
asI2482
(lp1982
I214
aI256
asI2483
(lp1983
I215
aI257
asI2484
(lp1984
I72
aI361
asI2485
(lp1985
I74
aI363
asI2486
(lp1986
I76
aI365
asI2487
(lp1987
I78
aI367
asI2488
(lp1988
I80
aI369
asI2489
(lp1989
I82
aI371
asI2490
(lp1990
I84
aI373
asI2491
(lp1991
I86
aI375
asI2492
(lp1992
I88
aI377
asI2493
(lp1993
I91
aI378
asI2494
(lp1994
I93
aI380
asI2495
(lp1995
I95
aI382
asI2496
(lp1996
I97
aI384
asI2497
(lp1997
I99
aI386
asI2498
(lp1998
I101
aI388
asI2499
(lp1999
I103
aI390
asI2500
(lp2000
I105
aI392
asI2501
(lp2001
I107
aI394
asI2502
(lp2002
I109
aI396
asI2503
(lp2003
I111
aI398
asI2504
(lp2004
I113
aI400
asI2505
(lp2005
I115
aI402
asI2506
(lp2006
I117
aI404
asI2507
(lp2007
I119
aI406
asI2508
(lp2008
I121
aI408
asI2509
(lp2009
I123
aI410
asI2510
(lp2010
I125
aI412
asI2511
(lp2011
I126
aI415
asI2512
(lp2012
I128
aI417
asI2513
(lp2013
I130
aI419
asI2514
(lp2014
I132
aI421
asI2515
(lp2015
I134
aI423
asI2516
(lp2016
I136
aI425
asI2517
(lp2017
I138
aI427
asI2518
(lp2018
I140
aI429
asI2519
(lp2019
I142
aI431
as.