ccollections
defaultdict
p0
(c__builtin__
list
p1
tp2
Rp3
I28
(lp4
I0
aI4
asI29
(lp5
I1
aI7
asI30
(lp6
I2
aI8
asI31
(lp7
I3
aI9
asI32
(lp8
I2
aI10
asI33
(lp9
I3
aI11
asI34
(lp10
I0
aI12
asI35
(lp11
I1
aI15
asI36
(lp12
I2
aI16
asI37
(lp13
I3
aI17
asI38
(lp14
I2
aI18
asI39
(lp15
I3
aI19
asI40
(lp16
I2
aI8
asI41
(lp17
I3
aI9
asI42
(lp18
I2
aI10
asI43
(lp19
I3
aI11
asI44
(lp20
I4
aI18
asI45
(lp21
I5
aI19
asI46
(lp22
I6
aI16
asI47
(lp23
I7
aI17
asI48
(lp24
I8
aI14
asI49
(lp25
I9
aI15
asI50
(lp26
I10
aI12
asI51
(lp27
I11
aI13
asI52
(lp28
I4
aI20
asI53
(lp29
I5
aI21
asI54
(lp30
I6
aI22
asI55
(lp31
I7
aI23
asI56
(lp32
I8
aI24
asI57
(lp33
I9
aI25
asI58
(lp34
I10
aI26
asI59
(lp35
I11
aI27
asI60
(lp36
I4
aI17
asI61
(lp37
I5
aI16
asI62
(lp38
I8
aI13
asI63
(lp39
I9
aI12
asI64
(lp40
I0
aI12
asI65
(lp41
I1
aI13
asI66
(lp42
I0
aI14
asI67
(lp43
I1
aI15
asI68
(lp44
I2
aI16
asI69
(lp45
I3
aI17
asI70
(lp46
I2
aI18
asI71
(lp47
I3
aI19
asI72
(lp48
I9
aI12
asI73
(lp49
I8
aI13
asI74
(lp50
I11
aI14
asI75
(lp51
I10
aI15
asI76
(lp52
I5
aI16
asI77
(lp53
I4
aI17
asI78
(lp54
I7
aI18
asI79
(lp55
I6
aI19
asI80
(lp56
I12
aI24
asI81
(lp57
I13
aI25
asI82
(lp58
I14
aI26
asI83
(lp59
I15
aI27
asI84
(lp60
I16
aI20
asI85
(lp61
I17
aI21
asI86
(lp62
I18
aI22
asI87
(lp63
I19
aI23
asI88
(lp64
I10
aI12
asI89
(lp65
I11
aI13
asI90
(lp66
I8
aI14
asI91
(lp67
I9
aI15
asI92
(lp68
I6
aI16
asI93
(lp69
I7
aI17
asI94
(lp70
I4
aI18
asI95
(lp71
I5
aI19
asI96
(lp72
I8
aI24
asI97
(lp73
I9
aI25
asI98
(lp74
I10
aI26
asI99
(lp75
I11
aI27
asI100
(lp76
I20
aI22
asI101
(lp77
I21
aI23
asI102
(lp78
I20
aI22
asI103
(lp79
I21
aI23
asI104
(lp80
I24
aI26
asI105
(lp81
I25
aI27
asI106
(lp82
I24
aI26
asI107
(lp83
I25
aI27
asI108
(lp84
I16
aI20
asI109
(lp85
I17
aI21
asI110
(lp86
I18
aI22
asI111
(lp87
I19
aI23
asI112
(lp88
I12
aI24
asI113
(lp89
I13
aI25
asI114
(lp90
I14
aI26
asI115
(lp91
I15
aI27
asI116
(lp92
I20
aI21
asI117
(lp93
I20
aI21
asI118
(lp94
I22
aI23
asI119
(lp95
I22
aI23
asI120
(lp96
I24
aI25
asI121
(lp97
I24
aI25
asI122
(lp98
I26
aI27
asI123
(lp99
I26
aI27
asI124
(lp100
I0
aI6
asI125
(lp101
I0
aI14
asI126
(lp102
I1
aI5
asI127
(lp103
I1
aI13
asI128
(lp104
I0
aI4
asI129
(lp105
I1
aI5
asI130
(lp106
I6
aI19
asI131
(lp107
I0
aI6
asI132
(lp108
I1
aI7
asI133
(lp109
I7
aI18
asI134
(lp110
I10
aI15
asI135
(lp111
I11
aI14
asI136
(lp112
I4
aI20
asI137
(lp113
I5
aI21
asI138
(lp114
I6
aI22
asI139
(lp115
I7
aI23
as.