ccollections
defaultdict
p0
(c__builtin__
list
p1
tp2
Rp3
I0
(lp4
I4096
aI4608
asI1
(lp5
I4097
aI4609
asI2
(lp6
I4098
aI4610
asI3
(lp7
I4099
aI4611
asI4
(lp8
I4100
aI4612
asI5
(lp9
I4101
aI4613
asI6
(lp10
I4102
aI4614
asI7
(lp11
I4103
aI4615
asI8
(lp12
I4104
aI4616
asI9
(lp13
I4105
aI4617
asI10
(lp14
I4106
aI4618
asI11
(lp15
I4107
aI4619
asI12
(lp16
I4108
aI4620
asI13
(lp17
I4109
aI4621
asI14
(lp18
I4110
aI4622
asI15
(lp19
I4111
aI4623
asI16
(lp20
I4112
aI4624
asI17
(lp21
I4113
aI4625
asI18
(lp22
I4114
aI4626
asI19
(lp23
I4115
aI4627
asI20
(lp24
I4116
aI4628
asI21
(lp25
I4117
aI4629
asI22
(lp26
I4118
aI4630
asI23
(lp27
I4119
aI4631
asI24
(lp28
I4120
aI4632
asI25
(lp29
I4121
aI4633
asI26
(lp30
I4122
aI4634
asI27
(lp31
I4123
aI4635
asI28
(lp32
I4124
aI4636
asI29
(lp33
I4125
aI4637
asI30
(lp34
I4126
aI4638
asI31
(lp35
I4127
aI4639
asI32
(lp36
I4128
aI4640
asI33
(lp37
I4129
aI4641
asI34
(lp38
I4130
aI4642
asI35
(lp39
I4131
aI4643
asI36
(lp40
I4132
aI4644
asI37
(lp41
I4133
aI4645
asI38
(lp42
I4134
aI4646
asI39
(lp43
I4135
aI4647
asI40
(lp44
I4136
aI4648
asI41
(lp45
I4137
aI4649
asI42
(lp46
I4138
aI4650
asI43
(lp47
I4139
aI4651
asI44
(lp48
I4140
aI4652
asI45
(lp49
I4141
aI4653
asI46
(lp50
I4142
aI4654
asI47
(lp51
I4143
aI4655
asI48
(lp52
I4144
aI4656
asI49
(lp53
I4145
aI4657
asI50
(lp54
I4146
aI4658
asI51
(lp55
I4147
aI4659
asI52
(lp56
I4148
aI4660
asI53
(lp57
I4149
aI4661
asI54
(lp58
I4150
aI4662
asI55
(lp59
I4151
aI4663
asI56
(lp60
I4152
aI4664
asI57
(lp61
I4153
aI4665
asI58
(lp62
I4154
aI4666
asI59
(lp63
I4155
aI4667
asI60
(lp64
I4156
aI4668
asI61
(lp65
I4157
aI4669
asI62
(lp66
I4158
aI4670
asI63
(lp67
I4159
aI4671
asI64
(lp68
I4160
aI4672
asI65
(lp69
I4161
aI4673
asI66
(lp70
I4162
aI4674
asI67
(lp71
I4163
aI4675
asI68
(lp72
I4164
aI4676
asI69
(lp73
I4165
aI4677
asI70
(lp74
I4166
aI4678
asI71
(lp75
I4167
aI4679
asI72
(lp76
I4168
aI4680
asI73
(lp77
I4169
aI4681
asI74
(lp78
I4170
aI4682
asI75
(lp79
I4171
aI4683
asI76
(lp80
I4172
aI4684
asI77
(lp81
I4173
aI4685
asI78
(lp82
I4174
aI4686
asI79
(lp83
I4175
aI4687
asI80
(lp84
I4176
aI4688
asI81
(lp85
I4177
aI4689
asI82
(lp86
I4178
aI4690
asI83
(lp87
I4179
aI4691
asI84
(lp88
I4180
aI4692
asI85
(lp89
I4181
aI4693
asI86
(lp90
I4182
aI4694
asI87
(lp91
I4183
aI4695
asI88
(lp92
I4184
aI4696
asI89
(lp93
I4185
aI4697
asI90
(lp94
I4186
aI4698
asI91
(lp95
I4187
aI4699
asI92
(lp96
I4188
aI4700
asI93
(lp97
I4189
aI4701
asI94
(lp98
I4190
aI4702
asI95
(lp99
I4191
aI4703
asI96
(lp100
I4192
aI4704
asI97
(lp101
I4193
aI4705
asI98
(lp102
I4194
aI4706
asI99
(lp103
I4195
aI4707
asI100
(lp104
I4196
aI4708
asI101
(lp105
I4197
aI4709
asI102
(lp106
I4198
aI4710
asI103
(lp107
I4199
aI4711
asI104
(lp108
I4200
aI4712
asI105
(lp109
I4201
aI4713
asI106
(lp110
I4202
aI4714
asI107
(lp111
I4203
aI4715
asI108
(lp112
I4204
aI4716
asI109
(lp113
I4205
aI4717
asI110
(lp114
I4206
aI4718
asI111
(lp115
I4207
aI4719
asI112
(lp116
I4208
aI4720
asI113
(lp117
I4209
aI4721
asI114
(lp118
I4210
aI4722
asI115
(lp119
I4211
aI4723
asI116
(lp120
I4212
aI4724
asI117
(lp121
I4213
aI4725
asI118
(lp122
I4214
aI4726
asI119
(lp123
I4215
aI4727
asI120
(lp124
I4216
aI4728
asI121
(lp125
I4217
aI4729
asI122
(lp126
I4218
aI4730
asI123
(lp127
I4219
aI4731
asI124
(lp128
I4220
aI4732
asI125
(lp129
I4221
aI4733
asI126
(lp130
I4222
aI4734
asI127
(lp131
I4223
aI4735
asI128
(lp132
I4224
aI4736
asI129
(lp133
I4225
aI4737
asI130
(lp134
I4226
aI4738
asI131
(lp135
I4227
aI4739
asI132
(lp136
I4228
aI4740
asI133
(lp137
I4229
aI4741
asI134
(lp138
I4230
aI4742
asI135
(lp139
I4231
aI4743
asI136
(lp140
I4232
aI4744
asI137
(lp141
I4233
aI4745
asI138
(lp142
I4234
aI4746
asI139
(lp143
I4235
aI4747
asI140
(lp144
I4236
aI4748
asI141
(lp145
I4237
aI4749
asI142
(lp146
I4238
aI4750
asI143
(lp147
I4239
aI4751
asI144
(lp148
I4240
aI4752
asI145
(lp149
I4241
aI4753
asI146
(lp150
I4242
aI4754
asI147
(lp151
I4243
aI4755
asI148
(lp152
I4244
aI4756
asI149
(lp153
I4245
aI4757
asI150
(lp154
I4246
aI4758
asI151
(lp155
I4247
aI4759
asI152
(lp156
I4248
aI4760
asI153
(lp157
I4249
aI4761
asI154
(lp158
I4250
aI4762
asI155
(lp159
I4251
aI4763
asI156
(lp160
I4252
aI4764
asI157
(lp161
I4253
aI4765
asI158
(lp162
I4254
aI4766
asI159
(lp163
I4255
aI4767
asI160
(lp164
I4256
aI4768
asI161
(lp165
I4257
aI4769
asI162
(lp166
I4258
aI4770
asI163
(lp167
I4259
aI4771
asI164
(lp168
I4260
aI4772
asI165
(lp169
I4261
aI4773
asI166
(lp170
I4262
aI4774
asI167
(lp171
I4263
aI4775
asI168
(lp172
I4264
aI4776
asI169
(lp173
I4265
aI4777
asI170
(lp174
I4266
aI4778
asI171
(lp175
I4267
aI4779
asI172
(lp176
I4268
aI4780
asI173
(lp177
I4269
aI4781
asI174
(lp178
I4270
aI4782
asI175
(lp179
I4271
aI4783
asI176
(lp180
I4272
aI4784
asI177
(lp181
I4273
aI4785
asI178
(lp182
I4274
aI4786
asI179
(lp183
I4275
aI4787
asI180
(lp184
I4276
aI4788
asI181
(lp185
I4277
aI4789
asI182
(lp186
I4278
aI4790
asI183
(lp187
I4279
aI4791
asI184
(lp188
I4280
aI4792
asI185
(lp189
I4281
aI4793
asI186
(lp190
I4282
aI4794
asI187
(lp191
I4283
aI4795
asI188
(lp192
I4284
aI4796
asI189
(lp193
I4285
aI4797
asI190
(lp194
I4286
aI4798
asI191
(lp195
I4287
aI4799
asI192
(lp196
I4288
aI4800
asI193
(lp197
I4289
aI4801
asI194
(lp198
I4290
aI4802
asI195
(lp199
I4291
aI4803
asI196
(lp200
I4292
aI4804
asI197
(lp201
I4293
aI4805
asI198
(lp202
I4294
aI4806
asI199
(lp203
I4295
aI4807
asI200
(lp204
I4296
aI4808
asI201
(lp205
I4297
aI4809
asI202
(lp206
I4298
aI4810
asI203
(lp207
I4299
aI4811
asI204
(lp208
I4300
aI4812
asI205
(lp209
I4301
aI4813
asI206
(lp210
I4302
aI4814
asI207
(lp211
I4303
aI4815
asI208
(lp212
I4304
aI4816
asI209
(lp213
I4305
aI4817
asI210
(lp214
I4306
aI4818
asI211
(lp215
I4307
aI4819
asI212
(lp216
I4308
aI4820
asI213
(lp217
I4309
aI4821
asI214
(lp218
I4310
aI4822
asI215
(lp219
I4311
aI4823
asI216
(lp220
I4312
aI4824
asI217
(lp221
I4313
aI4825
asI218
(lp222
I4314
aI4826
asI219
(lp223
I4315
aI4827
asI220
(lp224
I4316
aI4828
asI221
(lp225
I4317
aI4829
asI222
(lp226
I4318
aI4830
asI223
(lp227
I4319
aI4831
asI224
(lp228
I4320
aI4832
asI225
(lp229
I4321
aI4833
asI226
(lp230
I4322
aI4834
asI227
(lp231
I4323
aI4835
asI228
(lp232
I4324
aI4836
asI229
(lp233
I4325
aI4837
asI230
(lp234
I4326
aI4838
asI231
(lp235
I4327
aI4839
asI232
(lp236
I4328
aI4840
asI233
(lp237
I4329
aI4841
asI234
(lp238
I4330
aI4842
asI235
(lp239
I4331
aI4843
asI236
(lp240
I4332
aI4844
asI237
(lp241
I4333
aI4845
asI238
(lp242
I4334
aI4846
asI239
(lp243
I4335
aI4847
asI240
(lp244
I4336
aI4848
asI241
(lp245
I4337
aI4849
asI242
(lp246
I4338
aI4850
asI243
(lp247
I4339
aI4851
asI244
(lp248
I4340
aI4852
asI245
(lp249
I4341
aI4853
asI246
(lp250
I4342
aI4854
asI247
(lp251
I4343
aI4855
asI248
(lp252
I4344
aI4856
asI249
(lp253
I4345
aI4857
asI250
(lp254
I4346
aI4858
asI251
(lp255
I4347
aI4859
asI252
(lp256
I4348
aI4860
asI253
(lp257
I4349
aI4861
asI254
(lp258
I4350
aI4862
asI255
(lp259
I4351
aI4863
asI256
(lp260
I4352
aI4864
asI257
(lp261
I4353
aI4865
asI258
(lp262
I4354
aI4866
asI259
(lp263
I4355
aI4867
asI260
(lp264
I4356
aI4868
asI261
(lp265
I4357
aI4869
asI262
(lp266
I4358
aI4870
asI263
(lp267
I4359
aI4871
asI264
(lp268
I4360
aI4872
asI265
(lp269
I4361
aI4873
asI266
(lp270
I4362
aI4874
asI267
(lp271
I4363
aI4875
asI268
(lp272
I4364
aI4876
asI269
(lp273
I4365
aI4877
asI270
(lp274
I4366
aI4878
asI271
(lp275
I4367
aI4879
asI272
(lp276
I4368
aI4880
asI273
(lp277
I4369
aI4881
asI274
(lp278
I4370
aI4882
asI275
(lp279
I4371
aI4883
asI276
(lp280
I4372
aI4884
asI277
(lp281
I4373
aI4885
asI278
(lp282
I4374
aI4886
asI279
(lp283
I4375
aI4887
asI280
(lp284
I4376
aI4888
asI281
(lp285
I4377
aI4889
asI282
(lp286
I4378
aI4890
asI283
(lp287
I4379
aI4891
asI284
(lp288
I4380
aI4892
asI285
(lp289
I4381
aI4893
asI286
(lp290
I4382
aI4894
asI287
(lp291
I4383
aI4895
asI288
(lp292
I4384
aI4896
asI289
(lp293
I4385
aI4897
asI290
(lp294
I4386
aI4898
asI291
(lp295
I4387
aI4899
asI292
(lp296
I4388
aI4900
asI293
(lp297
I4389
aI4901
asI294
(lp298
I4390
aI4902
asI295
(lp299
I4391
aI4903
asI296
(lp300
I4392
aI4904
asI297
(lp301
I4393
aI4905
asI298
(lp302
I4394
aI4906
asI299
(lp303
I4395
aI4907
asI300
(lp304
I4396
aI4908
asI301
(lp305
I4397
aI4909
asI302
(lp306
I4398
aI4910
asI303
(lp307
I4399
aI4911
asI304
(lp308
I4400
aI4912
asI305
(lp309
I4401
aI4913
asI306
(lp310
I4402
aI4914
asI307
(lp311
I4403
aI4915
asI308
(lp312
I4404
aI4916
asI309
(lp313
I4405
aI4917
asI310
(lp314
I4406
aI4918
asI311
(lp315
I4407
aI4919
asI312
(lp316
I4408
aI4920
asI313
(lp317
I4409
aI4921
asI314
(lp318
I4410
aI4922
asI315
(lp319
I4411
aI4923
asI316
(lp320
I4412
aI4924
asI317
(lp321
I4413
aI4925
asI318
(lp322
I4414
aI4926
asI319
(lp323
I4415
aI4927
asI320
(lp324
I4416
aI4928
asI321
(lp325
I4417
aI4929
asI322
(lp326
I4418
aI4930
asI323
(lp327
I4419
aI4931
asI324
(lp328
I4420
aI4932
asI325
(lp329
I4421
aI4933
asI326
(lp330
I4422
aI4934
asI327
(lp331
I4423
aI4935
asI328
(lp332
I4424
aI4936
asI329
(lp333
I4425
aI4937
asI330
(lp334
I4426
aI4938
asI331
(lp335
I4427
aI4939
asI332
(lp336
I4428
aI4940
asI333
(lp337
I4429
aI4941
asI334
(lp338
I4430
aI4942
asI335
(lp339
I4431
aI4943
asI336
(lp340
I4432
aI4944
asI337
(lp341
I4433
aI4945
asI338
(lp342
I4434
aI4946
asI339
(lp343
I4435
aI4947
asI340
(lp344
I4436
aI4948
asI341
(lp345
I4437
aI4949
asI342
(lp346
I4438
aI4950
asI343
(lp347
I4439
aI4951
asI344
(lp348
I4440
aI4952
asI345
(lp349
I4441
aI4953
asI346
(lp350
I4442
aI4954
asI347
(lp351
I4443
aI4955
asI348
(lp352
I4444
aI4956
asI349
(lp353
I4445
aI4957
asI350
(lp354
I4446
aI4958
asI351
(lp355
I4447
aI4959
asI352
(lp356
I4448
aI4960
asI353
(lp357
I4449
aI4961
asI354
(lp358
I4450
aI4962
asI355
(lp359
I4451
aI4963
asI356
(lp360
I4452
aI4964
asI357
(lp361
I4453
aI4965
asI358
(lp362
I4454
aI4966
asI359
(lp363
I4455
aI4967
asI360
(lp364
I4456
aI4968
asI361
(lp365
I4457
aI4969
asI362
(lp366
I4458
aI4970
asI363
(lp367
I4459
aI4971
asI364
(lp368
I4460
aI4972
asI365
(lp369
I4461
aI4973
asI366
(lp370
I4462
aI4974
asI367
(lp371
I4463
aI4975
asI368
(lp372
I4464
aI4976
asI369
(lp373
I4465
aI4977
asI370
(lp374
I4466
aI4978
asI371
(lp375
I4467
aI4979
asI372
(lp376
I4468
aI4980
asI373
(lp377
I4469
aI4981
asI374
(lp378
I4470
aI4982
asI375
(lp379
I4471
aI4983
asI376
(lp380
I4472
aI4984
asI377
(lp381
I4473
aI4985
asI378
(lp382
I4474
aI4986
asI379
(lp383
I4475
aI4987
asI380
(lp384
I4476
aI4988
asI381
(lp385
I4477
aI4989
asI382
(lp386
I4478
aI4990
asI383
(lp387
I4479
aI4991
asI384
(lp388
I4480
aI4992
asI385
(lp389
I4481
aI4993
asI386
(lp390
I4482
aI4994
asI387
(lp391
I4483
aI4995
asI388
(lp392
I4484
aI4996
asI389
(lp393
I4485
aI4997
asI390
(lp394
I4486
aI4998
asI391
(lp395
I4487
aI4999
asI392
(lp396
I4488
aI5000
asI393
(lp397
I4489
aI5001
asI394
(lp398
I4490
aI5002
asI395
(lp399
I4491
aI5003
asI396
(lp400
I4492
aI5004
asI397
(lp401
I4493
aI5005
asI398
(lp402
I4494
aI5006
asI399
(lp403
I4495
aI5007
asI400
(lp404
I4496
aI5008
asI401
(lp405
I4497
aI5009
asI402
(lp406
I4498
aI5010
asI403
(lp407
I4499
aI5011
asI404
(lp408
I4500
aI5012
asI405
(lp409
I4501
aI5013
asI406
(lp410
I4502
aI5014
asI407
(lp411
I4503
aI5015
asI408
(lp412
I4504
aI5016
asI409
(lp413
I4505
aI5017
asI410
(lp414
I4506
aI5018
asI411
(lp415
I4507
aI5019
asI412
(lp416
I4508
aI5020
asI413
(lp417
I4509
aI5021
asI414
(lp418
I4510
aI5022
asI415
(lp419
I4511
aI5023
asI416
(lp420
I4512
aI5024
asI417
(lp421
I4513
aI5025
asI418
(lp422
I4514
aI5026
asI419
(lp423
I4515
aI5027
asI420
(lp424
I4516
aI5028
asI421
(lp425
I4517
aI5029
asI422
(lp426
I4518
aI5030
asI423
(lp427
I4519
aI5031
asI424
(lp428
I4520
aI5032
asI425
(lp429
I4521
aI5033
asI426
(lp430
I4522
aI5034
asI427
(lp431
I4523
aI5035
asI428
(lp432
I4524
aI5036
asI429
(lp433
I4525
aI5037
asI430
(lp434
I4526
aI5038
asI431
(lp435
I4527
aI5039
asI432
(lp436
I4528
aI5040
asI433
(lp437
I4529
aI5041
asI434
(lp438
I4530
aI5042
asI435
(lp439
I4531
aI5043
asI436
(lp440
I4532
aI5044
asI437
(lp441
I4533
aI5045
asI438
(lp442
I4534
aI5046
asI439
(lp443
I4535
aI5047
asI440
(lp444
I4536
aI5048
asI441
(lp445
I4537
aI5049
asI442
(lp446
I4538
aI5050
asI443
(lp447
I4539
aI5051
asI444
(lp448
I4540
aI5052
asI445
(lp449
I4541
aI5053
asI446
(lp450
I4542
aI5054
asI447
(lp451
I4543
aI5055
asI448
(lp452
I4544
aI5056
asI449
(lp453
I4545
aI5057
asI450
(lp454
I4546
aI5058
asI451
(lp455
I4547
aI5059
asI452
(lp456
I4548
aI5060
asI453
(lp457
I4549
aI5061
asI454
(lp458
I4550
aI5062
asI455
(lp459
I4551
aI5063
asI456
(lp460
I4552
aI5064
asI457
(lp461
I4553
aI5065
asI458
(lp462
I4554
aI5066
asI459
(lp463
I4555
aI5067
asI460
(lp464
I4556
aI5068
asI461
(lp465
I4557
aI5069
asI462
(lp466
I4558
aI5070
asI463
(lp467
I4559
aI5071
asI464
(lp468
I4560
aI5072
asI465
(lp469
I4561
aI5073
asI466
(lp470
I4562
aI5074
asI467
(lp471
I4563
aI5075
asI468
(lp472
I4564
aI5076
asI469
(lp473
I4565
aI5077
asI470
(lp474
I4566
aI5078
asI471
(lp475
I4567
aI5079
asI472
(lp476
I4568
aI5080
asI473
(lp477
I4569
aI5081
asI474
(lp478
I4570
aI5082
asI475
(lp479
I4571
aI5083
asI476
(lp480
I4572
aI5084
asI477
(lp481
I4573
aI5085
asI478
(lp482
I4574
aI5086
asI479
(lp483
I4575
aI5087
asI480
(lp484
I4576
aI5088
asI481
(lp485
I4577
aI5089
asI482
(lp486
I4578
aI5090
asI483
(lp487
I4579
aI5091
asI484
(lp488
I4580
aI5092
asI485
(lp489
I4581
aI5093
asI486
(lp490
I4582
aI5094
asI487
(lp491
I4583
aI5095
asI488
(lp492
I4584
aI5096
asI489
(lp493
I4585
aI5097
asI490
(lp494
I4586
aI5098
asI491
(lp495
I4587
aI5099
asI492
(lp496
I4588
aI5100
asI493
(lp497
I4589
aI5101
asI494
(lp498
I4590
aI5102
asI495
(lp499
I4591
aI5103
asI496
(lp500
I4592
aI5104
asI497
(lp501
I4593
aI5105
asI498
(lp502
I4594
aI5106
asI499
(lp503
I4595
aI5107
asI500
(lp504
I4596
aI5108
asI501
(lp505
I4597
aI5109
asI502
(lp506
I4598
aI5110
asI503
(lp507
I4599
aI5111
asI504
(lp508
I4600
aI5112
asI505
(lp509
I4601
aI5113
asI506
(lp510
I4602
aI5114
asI507
(lp511
I4603
aI5115
asI508
(lp512
I4604
aI5116
asI509
(lp513
I4605
aI5117
asI510
(lp514
I4606
aI5118
asI511
(lp515
I4607
aI5119
asI512
(lp516
I4096
aI4608
asI513
(lp517
I4097
aI4609
asI514
(lp518
I4098
aI4610
asI515
(lp519
I4099
aI4611
asI516
(lp520
I4100
aI4612
asI517
(lp521
I4101
aI4613
asI518
(lp522
I4102
aI4614
asI519
(lp523
I4103
aI4615
asI520
(lp524
I4104
aI4616
asI521
(lp525
I4105
aI4617
asI522
(lp526
I4106
aI4618
asI523
(lp527
I4107
aI4619
asI524
(lp528
I4108
aI4620
asI525
(lp529
I4109
aI4621
asI526
(lp530
I4110
aI4622
asI527
(lp531
I4111
aI4623
asI528
(lp532
I4112
aI4624
asI529
(lp533
I4113
aI4625
asI530
(lp534
I4114
aI4626
asI531
(lp535
I4115
aI4627
asI532
(lp536
I4116
aI4628
asI533
(lp537
I4117
aI4629
asI534
(lp538
I4118
aI4630
asI535
(lp539
I4119
aI4631
asI536
(lp540
I4120
aI4632
asI537
(lp541
I4121
aI4633
asI538
(lp542
I4122
aI4634
asI539
(lp543
I4123
aI4635
asI540
(lp544
I4124
aI4636
asI541
(lp545
I4125
aI4637
asI542
(lp546
I4126
aI4638
asI543
(lp547
I4127
aI4639
asI544
(lp548
I4128
aI4640
asI545
(lp549
I4129
aI4641
asI546
(lp550
I4130
aI4642
asI547
(lp551
I4131
aI4643
asI548
(lp552
I4132
aI4644
asI549
(lp553
I4133
aI4645
asI550
(lp554
I4134
aI4646
asI551
(lp555
I4135
aI4647
asI552
(lp556
I4136
aI4648
asI553
(lp557
I4137
aI4649
asI554
(lp558
I4138
aI4650
asI555
(lp559
I4139
aI4651
asI556
(lp560
I4140
aI4652
asI557
(lp561
I4141
aI4653
asI558
(lp562
I4142
aI4654
asI559
(lp563
I4143
aI4655
asI560
(lp564
I4144
aI4656
asI561
(lp565
I4145
aI4657
asI562
(lp566
I4146
aI4658
asI563
(lp567
I4147
aI4659
asI564
(lp568
I4148
aI4660
asI565
(lp569
I4149
aI4661
asI566
(lp570
I4150
aI4662
asI567
(lp571
I4151
aI4663
asI568
(lp572
I4152
aI4664
asI569
(lp573
I4153
aI4665
asI570
(lp574
I4154
aI4666
asI571
(lp575
I4155
aI4667
asI572
(lp576
I4156
aI4668
asI573
(lp577
I4157
aI4669
asI574
(lp578
I4158
aI4670
asI575
(lp579
I4159
aI4671
asI576
(lp580
I4160
aI4672
asI577
(lp581
I4161
aI4673
asI578
(lp582
I4162
aI4674
asI579
(lp583
I4163
aI4675
asI580
(lp584
I4164
aI4676
asI581
(lp585
I4165
aI4677
asI582
(lp586
I4166
aI4678
asI583
(lp587
I4167
aI4679
asI584
(lp588
I4168
aI4680
asI585
(lp589
I4169
aI4681
asI586
(lp590
I4170
aI4682
asI587
(lp591
I4171
aI4683
asI588
(lp592
I4172
aI4684
asI589
(lp593
I4173
aI4685
asI590
(lp594
I4174
aI4686
asI591
(lp595
I4175
aI4687
asI592
(lp596
I4176
aI4688
asI593
(lp597
I4177
aI4689
asI594
(lp598
I4178
aI4690
asI595
(lp599
I4179
aI4691
asI596
(lp600
I4180
aI4692
asI597
(lp601
I4181
aI4693
asI598
(lp602
I4182
aI4694
asI599
(lp603
I4183
aI4695
asI600
(lp604
I4184
aI4696
asI601
(lp605
I4185
aI4697
asI602
(lp606
I4186
aI4698
asI603
(lp607
I4187
aI4699
asI604
(lp608
I4188
aI4700
asI605
(lp609
I4189
aI4701
asI606
(lp610
I4190
aI4702
asI607
(lp611
I4191
aI4703
asI608
(lp612
I4192
aI4704
asI609
(lp613
I4193
aI4705
asI610
(lp614
I4194
aI4706
asI611
(lp615
I4195
aI4707
asI612
(lp616
I4196
aI4708
asI613
(lp617
I4197
aI4709
asI614
(lp618
I4198
aI4710
asI615
(lp619
I4199
aI4711
asI616
(lp620
I4200
aI4712
asI617
(lp621
I4201
aI4713
asI618
(lp622
I4202
aI4714
asI619
(lp623
I4203
aI4715
asI620
(lp624
I4204
aI4716
asI621
(lp625
I4205
aI4717
asI622
(lp626
I4206
aI4718
asI623
(lp627
I4207
aI4719
asI624
(lp628
I4208
aI4720
asI625
(lp629
I4209
aI4721
asI626
(lp630
I4210
aI4722
asI627
(lp631
I4211
aI4723
asI628
(lp632
I4212
aI4724
asI629
(lp633
I4213
aI4725
asI630
(lp634
I4214
aI4726
asI631
(lp635
I4215
aI4727
asI632
(lp636
I4216
aI4728
asI633
(lp637
I4217
aI4729
asI634
(lp638
I4218
aI4730
asI635
(lp639
I4219
aI4731
asI636
(lp640
I4220
aI4732
asI637
(lp641
I4221
aI4733
asI638
(lp642
I4222
aI4734
asI639
(lp643
I4223
aI4735
asI640
(lp644
I4224
aI4736
asI641
(lp645
I4225
aI4737
asI642
(lp646
I4226
aI4738
asI643
(lp647
I4227
aI4739
asI644
(lp648
I4228
aI4740
asI645
(lp649
I4229
aI4741
asI646
(lp650
I4230
aI4742
asI647
(lp651
I4231
aI4743
asI648
(lp652
I4232
aI4744
asI649
(lp653
I4233
aI4745
asI650
(lp654
I4234
aI4746
asI651
(lp655
I4235
aI4747
asI652
(lp656
I4236
aI4748
asI653
(lp657
I4237
aI4749
asI654
(lp658
I4238
aI4750
asI655
(lp659
I4239
aI4751
asI656
(lp660
I4240
aI4752
asI657
(lp661
I4241
aI4753
asI658
(lp662
I4242
aI4754
asI659
(lp663
I4243
aI4755
asI660
(lp664
I4244
aI4756
asI661
(lp665
I4245
aI4757
asI662
(lp666
I4246
aI4758
asI663
(lp667
I4247
aI4759
asI664
(lp668
I4248
aI4760
asI665
(lp669
I4249
aI4761
asI666
(lp670
I4250
aI4762
asI667
(lp671
I4251
aI4763
asI668
(lp672
I4252
aI4764
asI669
(lp673
I4253
aI4765
asI670
(lp674
I4254
aI4766
asI671
(lp675
I4255
aI4767
asI672
(lp676
I4256
aI4768
asI673
(lp677
I4257
aI4769
asI674
(lp678
I4258
aI4770
asI675
(lp679
I4259
aI4771
asI676
(lp680
I4260
aI4772
asI677
(lp681
I4261
aI4773
asI678
(lp682
I4262
aI4774
asI679
(lp683
I4263
aI4775
asI680
(lp684
I4264
aI4776
asI681
(lp685
I4265
aI4777
asI682
(lp686
I4266
aI4778
asI683
(lp687
I4267
aI4779
asI684
(lp688
I4268
aI4780
asI685
(lp689
I4269
aI4781
asI686
(lp690
I4270
aI4782
asI687
(lp691
I4271
aI4783
asI688
(lp692
I4272
aI4784
asI689
(lp693
I4273
aI4785
asI690
(lp694
I4274
aI4786
asI691
(lp695
I4275
aI4787
asI692
(lp696
I4276
aI4788
asI693
(lp697
I4277
aI4789
asI694
(lp698
I4278
aI4790
asI695
(lp699
I4279
aI4791
asI696
(lp700
I4280
aI4792
asI697
(lp701
I4281
aI4793
asI698
(lp702
I4282
aI4794
asI699
(lp703
I4283
aI4795
asI700
(lp704
I4284
aI4796
asI701
(lp705
I4285
aI4797
asI702
(lp706
I4286
aI4798
asI703
(lp707
I4287
aI4799
asI704
(lp708
I4288
aI4800
asI705
(lp709
I4289
aI4801
asI706
(lp710
I4290
aI4802
asI707
(lp711
I4291
aI4803
asI708
(lp712
I4292
aI4804
asI709
(lp713
I4293
aI4805
asI710
(lp714
I4294
aI4806
asI711
(lp715
I4295
aI4807
asI712
(lp716
I4296
aI4808
asI713
(lp717
I4297
aI4809
asI714
(lp718
I4298
aI4810
asI715
(lp719
I4299
aI4811
asI716
(lp720
I4300
aI4812
asI717
(lp721
I4301
aI4813
asI718
(lp722
I4302
aI4814
asI719
(lp723
I4303
aI4815
asI720
(lp724
I4304
aI4816
asI721
(lp725
I4305
aI4817
asI722
(lp726
I4306
aI4818
asI723
(lp727
I4307
aI4819
asI724
(lp728
I4308
aI4820
asI725
(lp729
I4309
aI4821
asI726
(lp730
I4310
aI4822
asI727
(lp731
I4311
aI4823
asI728
(lp732
I4312
aI4824
asI729
(lp733
I4313
aI4825
asI730
(lp734
I4314
aI4826
asI731
(lp735
I4315
aI4827
asI732
(lp736
I4316
aI4828
asI733
(lp737
I4317
aI4829
asI734
(lp738
I4318
aI4830
asI735
(lp739
I4319
aI4831
asI736
(lp740
I4320
aI4832
asI737
(lp741
I4321
aI4833
asI738
(lp742
I4322
aI4834
asI739
(lp743
I4323
aI4835
asI740
(lp744
I4324
aI4836
asI741
(lp745
I4325
aI4837
asI742
(lp746
I4326
aI4838
asI743
(lp747
I4327
aI4839
asI744
(lp748
I4328
aI4840
asI745
(lp749
I4329
aI4841
asI746
(lp750
I4330
aI4842
asI747
(lp751
I4331
aI4843
asI748
(lp752
I4332
aI4844
asI749
(lp753
I4333
aI4845
asI750
(lp754
I4334
aI4846
asI751
(lp755
I4335
aI4847
asI752
(lp756
I4336
aI4848
asI753
(lp757
I4337
aI4849
asI754
(lp758
I4338
aI4850
asI755
(lp759
I4339
aI4851
asI756
(lp760
I4340
aI4852
asI757
(lp761
I4341
aI4853
asI758
(lp762
I4342
aI4854
asI759
(lp763
I4343
aI4855
asI760
(lp764
I4344
aI4856
asI761
(lp765
I4345
aI4857
asI762
(lp766
I4346
aI4858
asI763
(lp767
I4347
aI4859
asI764
(lp768
I4348
aI4860
asI765
(lp769
I4349
aI4861
asI766
(lp770
I4350
aI4862
asI767
(lp771
I4351
aI4863
asI768
(lp772
I4352
aI4864
asI769
(lp773
I4353
aI4865
asI770
(lp774
I4354
aI4866
asI771
(lp775
I4355
aI4867
asI772
(lp776
I4356
aI4868
asI773
(lp777
I4357
aI4869
asI774
(lp778
I4358
aI4870
asI775
(lp779
I4359
aI4871
asI776
(lp780
I4360
aI4872
asI777
(lp781
I4361
aI4873
asI778
(lp782
I4362
aI4874
asI779
(lp783
I4363
aI4875
asI780
(lp784
I4364
aI4876
asI781
(lp785
I4365
aI4877
asI782
(lp786
I4366
aI4878
asI783
(lp787
I4367
aI4879
asI784
(lp788
I4368
aI4880
asI785
(lp789
I4369
aI4881
asI786
(lp790
I4370
aI4882
asI787
(lp791
I4371
aI4883
asI788
(lp792
I4372
aI4884
asI789
(lp793
I4373
aI4885
asI790
(lp794
I4374
aI4886
asI791
(lp795
I4375
aI4887
asI792
(lp796
I4376
aI4888
asI793
(lp797
I4377
aI4889
asI794
(lp798
I4378
aI4890
asI795
(lp799
I4379
aI4891
asI796
(lp800
I4380
aI4892
asI797
(lp801
I4381
aI4893
asI798
(lp802
I4382
aI4894
asI799
(lp803
I4383
aI4895
asI800
(lp804
I4384
aI4896
asI801
(lp805
I4385
aI4897
asI802
(lp806
I4386
aI4898
asI803
(lp807
I4387
aI4899
asI804
(lp808
I4388
aI4900
asI805
(lp809
I4389
aI4901
asI806
(lp810
I4390
aI4902
asI807
(lp811
I4391
aI4903
asI808
(lp812
I4392
aI4904
asI809
(lp813
I4393
aI4905
asI810
(lp814
I4394
aI4906
asI811
(lp815
I4395
aI4907
asI812
(lp816
I4396
aI4908
asI813
(lp817
I4397
aI4909
asI814
(lp818
I4398
aI4910
asI815
(lp819
I4399
aI4911
asI816
(lp820
I4400
aI4912
asI817
(lp821
I4401
aI4913
asI818
(lp822
I4402
aI4914
asI819
(lp823
I4403
aI4915
asI820
(lp824
I4404
aI4916
asI821
(lp825
I4405
aI4917
asI822
(lp826
I4406
aI4918
asI823
(lp827
I4407
aI4919
asI824
(lp828
I4408
aI4920
asI825
(lp829
I4409
aI4921
asI826
(lp830
I4410
aI4922
asI827
(lp831
I4411
aI4923
asI828
(lp832
I4412
aI4924
asI829
(lp833
I4413
aI4925
asI830
(lp834
I4414
aI4926
asI831
(lp835
I4415
aI4927
asI832
(lp836
I4416
aI4928
asI833
(lp837
I4417
aI4929
asI834
(lp838
I4418
aI4930
asI835
(lp839
I4419
aI4931
asI836
(lp840
I4420
aI4932
asI837
(lp841
I4421
aI4933
asI838
(lp842
I4422
aI4934
asI839
(lp843
I4423
aI4935
asI840
(lp844
I4424
aI4936
asI841
(lp845
I4425
aI4937
asI842
(lp846
I4426
aI4938
asI843
(lp847
I4427
aI4939
asI844
(lp848
I4428
aI4940
asI845
(lp849
I4429
aI4941
asI846
(lp850
I4430
aI4942
asI847
(lp851
I4431
aI4943
asI848
(lp852
I4432
aI4944
asI849
(lp853
I4433
aI4945
asI850
(lp854
I4434
aI4946
asI851
(lp855
I4435
aI4947
asI852
(lp856
I4436
aI4948
asI853
(lp857
I4437
aI4949
asI854
(lp858
I4438
aI4950
asI855
(lp859
I4439
aI4951
asI856
(lp860
I4440
aI4952
asI857
(lp861
I4441
aI4953
asI858
(lp862
I4442
aI4954
asI859
(lp863
I4443
aI4955
asI860
(lp864
I4444
aI4956
asI861
(lp865
I4445
aI4957
asI862
(lp866
I4446
aI4958
asI863
(lp867
I4447
aI4959
asI864
(lp868
I4448
aI4960
asI865
(lp869
I4449
aI4961
asI866
(lp870
I4450
aI4962
asI867
(lp871
I4451
aI4963
asI868
(lp872
I4452
aI4964
asI869
(lp873
I4453
aI4965
asI870
(lp874
I4454
aI4966
asI871
(lp875
I4455
aI4967
asI872
(lp876
I4456
aI4968
asI873
(lp877
I4457
aI4969
asI874
(lp878
I4458
aI4970
asI875
(lp879
I4459
aI4971
asI876
(lp880
I4460
aI4972
asI877
(lp881
I4461
aI4973
asI878
(lp882
I4462
aI4974
asI879
(lp883
I4463
aI4975
asI880
(lp884
I4464
aI4976
asI881
(lp885
I4465
aI4977
asI882
(lp886
I4466
aI4978
asI883
(lp887
I4467
aI4979
asI884
(lp888
I4468
aI4980
asI885
(lp889
I4469
aI4981
asI886
(lp890
I4470
aI4982
asI887
(lp891
I4471
aI4983
asI888
(lp892
I4472
aI4984
asI889
(lp893
I4473
aI4985
asI890
(lp894
I4474
aI4986
asI891
(lp895
I4475
aI4987
asI892
(lp896
I4476
aI4988
asI893
(lp897
I4477
aI4989
asI894
(lp898
I4478
aI4990
asI895
(lp899
I4479
aI4991
asI896
(lp900
I4480
aI4992
asI897
(lp901
I4481
aI4993
asI898
(lp902
I4482
aI4994
asI899
(lp903
I4483
aI4995
asI900
(lp904
I4484
aI4996
asI901
(lp905
I4485
aI4997
asI902
(lp906
I4486
aI4998
asI903
(lp907
I4487
aI4999
asI904
(lp908
I4488
aI5000
asI905
(lp909
I4489
aI5001
asI906
(lp910
I4490
aI5002
asI907
(lp911
I4491
aI5003
asI908
(lp912
I4492
aI5004
asI909
(lp913
I4493
aI5005
asI910
(lp914
I4494
aI5006
asI911
(lp915
I4495
aI5007
asI912
(lp916
I4496
aI5008
asI913
(lp917
I4497
aI5009
asI914
(lp918
I4498
aI5010
asI915
(lp919
I4499
aI5011
asI916
(lp920
I4500
aI5012
asI917
(lp921
I4501
aI5013
asI918
(lp922
I4502
aI5014
asI919
(lp923
I4503
aI5015
asI920
(lp924
I4504
aI5016
asI921
(lp925
I4505
aI5017
asI922
(lp926
I4506
aI5018
asI923
(lp927
I4507
aI5019
asI924
(lp928
I4508
aI5020
asI925
(lp929
I4509
aI5021
asI926
(lp930
I4510
aI5022
asI927
(lp931
I4511
aI5023
asI928
(lp932
I4512
aI5024
asI929
(lp933
I4513
aI5025
asI930
(lp934
I4514
aI5026
asI931
(lp935
I4515
aI5027
asI932
(lp936
I4516
aI5028
asI933
(lp937
I4517
aI5029
asI934
(lp938
I4518
aI5030
asI935
(lp939
I4519
aI5031
asI936
(lp940
I4520
aI5032
asI937
(lp941
I4521
aI5033
asI938
(lp942
I4522
aI5034
asI939
(lp943
I4523
aI5035
asI940
(lp944
I4524
aI5036
asI941
(lp945
I4525
aI5037
asI942
(lp946
I4526
aI5038
asI943
(lp947
I4527
aI5039
asI944
(lp948
I4528
aI5040
asI945
(lp949
I4529
aI5041
asI946
(lp950
I4530
aI5042
asI947
(lp951
I4531
aI5043
asI948
(lp952
I4532
aI5044
asI949
(lp953
I4533
aI5045
asI950
(lp954
I4534
aI5046
asI951
(lp955
I4535
aI5047
asI952
(lp956
I4536
aI5048
asI953
(lp957
I4537
aI5049
asI954
(lp958
I4538
aI5050
asI955
(lp959
I4539
aI5051
asI956
(lp960
I4540
aI5052
asI957
(lp961
I4541
aI5053
asI958
(lp962
I4542
aI5054
asI959
(lp963
I4543
aI5055
asI960
(lp964
I4544
aI5056
asI961
(lp965
I4545
aI5057
asI962
(lp966
I4546
aI5058
asI963
(lp967
I4547
aI5059
asI964
(lp968
I4548
aI5060
asI965
(lp969
I4549
aI5061
asI966
(lp970
I4550
aI5062
asI967
(lp971
I4551
aI5063
asI968
(lp972
I4552
aI5064
asI969
(lp973
I4553
aI5065
asI970
(lp974
I4554
aI5066
asI971
(lp975
I4555
aI5067
asI972
(lp976
I4556
aI5068
asI973
(lp977
I4557
aI5069
asI974
(lp978
I4558
aI5070
asI975
(lp979
I4559
aI5071
asI976
(lp980
I4560
aI5072
asI977
(lp981
I4561
aI5073
asI978
(lp982
I4562
aI5074
asI979
(lp983
I4563
aI5075
asI980
(lp984
I4564
aI5076
asI981
(lp985
I4565
aI5077
asI982
(lp986
I4566
aI5078
asI983
(lp987
I4567
aI5079
asI984
(lp988
I4568
aI5080
asI985
(lp989
I4569
aI5081
asI986
(lp990
I4570
aI5082
asI987
(lp991
I4571
aI5083
asI988
(lp992
I4572
aI5084
asI989
(lp993
I4573
aI5085
asI990
(lp994
I4574
aI5086
asI991
(lp995
I4575
aI5087
asI992
(lp996
I4576
aI5088
asI993
(lp997
I4577
aI5089
asI994
(lp998
I4578
aI5090
asI995
(lp999
I4579
aI5091
asI996
(lp1000
I4580
aI5092
asI997
(lp1001
I4581
aI5093
asI998
(lp1002
I4582
aI5094
asI999
(lp1003
I4583
aI5095
asI1000
(lp1004
I4584
aI5096
asI1001
(lp1005
I4585
aI5097
asI1002
(lp1006
I4586
aI5098
asI1003
(lp1007
I4587
aI5099
asI1004
(lp1008
I4588
aI5100
asI1005
(lp1009
I4589
aI5101
asI1006
(lp1010
I4590
aI5102
asI1007
(lp1011
I4591
aI5103
asI1008
(lp1012
I4592
aI5104
asI1009
(lp1013
I4593
aI5105
asI1010
(lp1014
I4594
aI5106
asI1011
(lp1015
I4595
aI5107
asI1012
(lp1016
I4596
aI5108
asI1013
(lp1017
I4597
aI5109
asI1014
(lp1018
I4598
aI5110
asI1015
(lp1019
I4599
aI5111
asI1016
(lp1020
I4600
aI5112
asI1017
(lp1021
I4601
aI5113
asI1018
(lp1022
I4602
aI5114
asI1019
(lp1023
I4603
aI5115
asI1020
(lp1024
I4604
aI5116
asI1021
(lp1025
I4605
aI5117
asI1022
(lp1026
I4606
aI5118
asI1023
(lp1027
I4607
aI5119
asI1024
(lp1028
I4096
aI5112
asI1025
(lp1029
I4097
aI5113
asI1026
(lp1030
I4098
aI5114
asI1027
(lp1031
I4099
aI5115
asI1028
(lp1032
I4100
aI5116
asI1029
(lp1033
I4101
aI5117
asI1030
(lp1034
I4102
aI5118
asI1031
(lp1035
I4103
aI5119
asI1032
(lp1036
I4104
aI5056
asI1033
(lp1037
I4105
aI5057
asI1034
(lp1038
I4106
aI5058
asI1035
(lp1039
I4107
aI5059
asI1036
(lp1040
I4108
aI5060
asI1037
(lp1041
I4109
aI5061
asI1038
(lp1042
I4110
aI5062
asI1039
(lp1043
I4111
aI5063
asI1040
(lp1044
I4112
aI5064
asI1041
(lp1045
I4113
aI5065
asI1042
(lp1046
I4114
aI5066
asI1043
(lp1047
I4115
aI5067
asI1044
(lp1048
I4116
aI5068
asI1045
(lp1049
I4117
aI5069
asI1046
(lp1050
I4118
aI5070
asI1047
(lp1051
I4119
aI5071
asI1048
(lp1052
I4120
aI5072
asI1049
(lp1053
I4121
aI5073
asI1050
(lp1054
I4122
aI5074
asI1051
(lp1055
I4123
aI5075
asI1052
(lp1056
I4124
aI5076
asI1053
(lp1057
I4125
aI5077
asI1054
(lp1058
I4126
aI5078
asI1055
(lp1059
I4127
aI5079
asI1056
(lp1060
I4128
aI5080
asI1057
(lp1061
I4129
aI5081
asI1058
(lp1062
I4130
aI5082
asI1059
(lp1063
I4131
aI5083
asI1060
(lp1064
I4132
aI5084
asI1061
(lp1065
I4133
aI5085
asI1062
(lp1066
I4134
aI5086
asI1063
(lp1067
I4135
aI5087
asI1064
(lp1068
I4136
aI5088
asI1065
(lp1069
I4137
aI5089
asI1066
(lp1070
I4138
aI5090
asI1067
(lp1071
I4139
aI5091
asI1068
(lp1072
I4140
aI5092
asI1069
(lp1073
I4141
aI5093
asI1070
(lp1074
I4142
aI5094
asI1071
(lp1075
I4143
aI5095
asI1072
(lp1076
I4144
aI5096
asI1073
(lp1077
I4145
aI5097
asI1074
(lp1078
I4146
aI5098
asI1075
(lp1079
I4147
aI5099
asI1076
(lp1080
I4148
aI5100
asI1077
(lp1081
I4149
aI5101
asI1078
(lp1082
I4150
aI5102
asI1079
(lp1083
I4151
aI5103
asI1080
(lp1084
I4152
aI5104
asI1081
(lp1085
I4153
aI5105
asI1082
(lp1086
I4154
aI5106
asI1083
(lp1087
I4155
aI5107
asI1084
(lp1088
I4156
aI5108
asI1085
(lp1089
I4157
aI5109
asI1086
(lp1090
I4158
aI5110
asI1087
(lp1091
I4159
aI5111
asI1088
(lp1092
I4160
aI4664
asI1089
(lp1093
I4161
aI4665
asI1090
(lp1094
I4162
aI4666
asI1091
(lp1095
I4163
aI4667
asI1092
(lp1096
I4164
aI4668
asI1093
(lp1097
I4165
aI4669
asI1094
(lp1098
I4166
aI4670
asI1095
(lp1099
I4167
aI4671
asI1096
(lp1100
I4168
aI4608
asI1097
(lp1101
I4169
aI4609
asI1098
(lp1102
I4170
aI4610
asI1099
(lp1103
I4171
aI4611
asI1100
(lp1104
I4172
aI4612
asI1101
(lp1105
I4173
aI4613
asI1102
(lp1106
I4174
aI4614
asI1103
(lp1107
I4175
aI4615
asI1104
(lp1108
I4176
aI4616
asI1105
(lp1109
I4177
aI4617
asI1106
(lp1110
I4178
aI4618
asI1107
(lp1111
I4179
aI4619
asI1108
(lp1112
I4180
aI4620
asI1109
(lp1113
I4181
aI4621
asI1110
(lp1114
I4182
aI4622
asI1111
(lp1115
I4183
aI4623
asI1112
(lp1116
I4184
aI4624
asI1113
(lp1117
I4185
aI4625
asI1114
(lp1118
I4186
aI4626
asI1115
(lp1119
I4187
aI4627
asI1116
(lp1120
I4188
aI4628
asI1117
(lp1121
I4189
aI4629
asI1118
(lp1122
I4190
aI4630
asI1119
(lp1123
I4191
aI4631
asI1120
(lp1124
I4192
aI4632
asI1121
(lp1125
I4193
aI4633
asI1122
(lp1126
I4194
aI4634
asI1123
(lp1127
I4195
aI4635
asI1124
(lp1128
I4196
aI4636
asI1125
(lp1129
I4197
aI4637
asI1126
(lp1130
I4198
aI4638
asI1127
(lp1131
I4199
aI4639
asI1128
(lp1132
I4200
aI4640
asI1129
(lp1133
I4201
aI4641
asI1130
(lp1134
I4202
aI4642
asI1131
(lp1135
I4203
aI4643
asI1132
(lp1136
I4204
aI4644
asI1133
(lp1137
I4205
aI4645
asI1134
(lp1138
I4206
aI4646
asI1135
(lp1139
I4207
aI4647
asI1136
(lp1140
I4208
aI4648
asI1137
(lp1141
I4209
aI4649
asI1138
(lp1142
I4210
aI4650
asI1139
(lp1143
I4211
aI4651
asI1140
(lp1144
I4212
aI4652
asI1141
(lp1145
I4213
aI4653
asI1142
(lp1146
I4214
aI4654
asI1143
(lp1147
I4215
aI4655
asI1144
(lp1148
I4216
aI4656
asI1145
(lp1149
I4217
aI4657
asI1146
(lp1150
I4218
aI4658
asI1147
(lp1151
I4219
aI4659
asI1148
(lp1152
I4220
aI4660
asI1149
(lp1153
I4221
aI4661
asI1150
(lp1154
I4222
aI4662
asI1151
(lp1155
I4223
aI4663
asI1152
(lp1156
I4224
aI4728
asI1153
(lp1157
I4225
aI4729
asI1154
(lp1158
I4226
aI4730
asI1155
(lp1159
I4227
aI4731
asI1156
(lp1160
I4228
aI4732
asI1157
(lp1161
I4229
aI4733
asI1158
(lp1162
I4230
aI4734
asI1159
(lp1163
I4231
aI4735
asI1160
(lp1164
I4232
aI4672
asI1161
(lp1165
I4233
aI4673
asI1162
(lp1166
I4234
aI4674
asI1163
(lp1167
I4235
aI4675
asI1164
(lp1168
I4236
aI4676
asI1165
(lp1169
I4237
aI4677
asI1166
(lp1170
I4238
aI4678
asI1167
(lp1171
I4239
aI4679
asI1168
(lp1172
I4240
aI4680
asI1169
(lp1173
I4241
aI4681
asI1170
(lp1174
I4242
aI4682
asI1171
(lp1175
I4243
aI4683
asI1172
(lp1176
I4244
aI4684
asI1173
(lp1177
I4245
aI4685
asI1174
(lp1178
I4246
aI4686
asI1175
(lp1179
I4247
aI4687
asI1176
(lp1180
I4248
aI4688
asI1177
(lp1181
I4249
aI4689
asI1178
(lp1182
I4250
aI4690
asI1179
(lp1183
I4251
aI4691
asI1180
(lp1184
I4252
aI4692
asI1181
(lp1185
I4253
aI4693
asI1182
(lp1186
I4254
aI4694
asI1183
(lp1187
I4255
aI4695
asI1184
(lp1188
I4256
aI4696
asI1185
(lp1189
I4257
aI4697
asI1186
(lp1190
I4258
aI4698
asI1187
(lp1191
I4259
aI4699
asI1188
(lp1192
I4260
aI4700
asI1189
(lp1193
I4261
aI4701
asI1190
(lp1194
I4262
aI4702
asI1191
(lp1195
I4263
aI4703
asI1192
(lp1196
I4264
aI4704
asI1193
(lp1197
I4265
aI4705
asI1194
(lp1198
I4266
aI4706
asI1195
(lp1199
I4267
aI4707
asI1196
(lp1200
I4268
aI4708
asI1197
(lp1201
I4269
aI4709
asI1198
(lp1202
I4270
aI4710
asI1199
(lp1203
I4271
aI4711
asI1200
(lp1204
I4272
aI4712
asI1201
(lp1205
I4273
aI4713
asI1202
(lp1206
I4274
aI4714
asI1203
(lp1207
I4275
aI4715
asI1204
(lp1208
I4276
aI4716
asI1205
(lp1209
I4277
aI4717
asI1206
(lp1210
I4278
aI4718
asI1207
(lp1211
I4279
aI4719
asI1208
(lp1212
I4280
aI4720
asI1209
(lp1213
I4281
aI4721
asI1210
(lp1214
I4282
aI4722
asI1211
(lp1215
I4283
aI4723
asI1212
(lp1216
I4284
aI4724
asI1213
(lp1217
I4285
aI4725
asI1214
(lp1218
I4286
aI4726
asI1215
(lp1219
I4287
aI4727
asI1216
(lp1220
I4288
aI4792
asI1217
(lp1221
I4289
aI4793
asI1218
(lp1222
I4290
aI4794
asI1219
(lp1223
I4291
aI4795
asI1220
(lp1224
I4292
aI4796
asI1221
(lp1225
I4293
aI4797
asI1222
(lp1226
I4294
aI4798
asI1223
(lp1227
I4295
aI4799
asI1224
(lp1228
I4296
aI4736
asI1225
(lp1229
I4297
aI4737
asI1226
(lp1230
I4298
aI4738
asI1227
(lp1231
I4299
aI4739
asI1228
(lp1232
I4300
aI4740
asI1229
(lp1233
I4301
aI4741
asI1230
(lp1234
I4302
aI4742
asI1231
(lp1235
I4303
aI4743
asI1232
(lp1236
I4304
aI4744
asI1233
(lp1237
I4305
aI4745
asI1234
(lp1238
I4306
aI4746
asI1235
(lp1239
I4307
aI4747
asI1236
(lp1240
I4308
aI4748
asI1237
(lp1241
I4309
aI4749
asI1238
(lp1242
I4310
aI4750
asI1239
(lp1243
I4311
aI4751
asI1240
(lp1244
I4312
aI4752
asI1241
(lp1245
I4313
aI4753
asI1242
(lp1246
I4314
aI4754
asI1243
(lp1247
I4315
aI4755
asI1244
(lp1248
I4316
aI4756
asI1245
(lp1249
I4317
aI4757
asI1246
(lp1250
I4318
aI4758
asI1247
(lp1251
I4319
aI4759
asI1248
(lp1252
I4320
aI4760
asI1249
(lp1253
I4321
aI4761
asI1250
(lp1254
I4322
aI4762
asI1251
(lp1255
I4323
aI4763
asI1252
(lp1256
I4324
aI4764
asI1253
(lp1257
I4325
aI4765
asI1254
(lp1258
I4326
aI4766
asI1255
(lp1259
I4327
aI4767
asI1256
(lp1260
I4328
aI4768
asI1257
(lp1261
I4329
aI4769
asI1258
(lp1262
I4330
aI4770
asI1259
(lp1263
I4331
aI4771
asI1260
(lp1264
I4332
aI4772
asI1261
(lp1265
I4333
aI4773
asI1262
(lp1266
I4334
aI4774
asI1263
(lp1267
I4335
aI4775
asI1264
(lp1268
I4336
aI4776
asI1265
(lp1269
I4337
aI4777
asI1266
(lp1270
I4338
aI4778
asI1267
(lp1271
I4339
aI4779
asI1268
(lp1272
I4340
aI4780
asI1269
(lp1273
I4341
aI4781
asI1270
(lp1274
I4342
aI4782
asI1271
(lp1275
I4343
aI4783
asI1272
(lp1276
I4344
aI4784
asI1273
(lp1277
I4345
aI4785
asI1274
(lp1278
I4346
aI4786
asI1275
(lp1279
I4347
aI4787
asI1276
(lp1280
I4348
aI4788
asI1277
(lp1281
I4349
aI4789
asI1278
(lp1282
I4350
aI4790
asI1279
(lp1283
I4351
aI4791
asI1280
(lp1284
I4352
aI4856
asI1281
(lp1285
I4353
aI4857
asI1282
(lp1286
I4354
aI4858
asI1283
(lp1287
I4355
aI4859
asI1284
(lp1288
I4356
aI4860
asI1285
(lp1289
I4357
aI4861
asI1286
(lp1290
I4358
aI4862
asI1287
(lp1291
I4359
aI4863
asI1288
(lp1292
I4360
aI4800
asI1289
(lp1293
I4361
aI4801
asI1290
(lp1294
I4362
aI4802
asI1291
(lp1295
I4363
aI4803
asI1292
(lp1296
I4364
aI4804
asI1293
(lp1297
I4365
aI4805
asI1294
(lp1298
I4366
aI4806
asI1295
(lp1299
I4367
aI4807
asI1296
(lp1300
I4368
aI4808
asI1297
(lp1301
I4369
aI4809
asI1298
(lp1302
I4370
aI4810
asI1299
(lp1303
I4371
aI4811
asI1300
(lp1304
I4372
aI4812
asI1301
(lp1305
I4373
aI4813
asI1302
(lp1306
I4374
aI4814
asI1303
(lp1307
I4375
aI4815
asI1304
(lp1308
I4376
aI4816
asI1305
(lp1309
I4377
aI4817
asI1306
(lp1310
I4378
aI4818
asI1307
(lp1311
I4379
aI4819
asI1308
(lp1312
I4380
aI4820
asI1309
(lp1313
I4381
aI4821
asI1310
(lp1314
I4382
aI4822
asI1311
(lp1315
I4383
aI4823
asI1312
(lp1316
I4384
aI4824
asI1313
(lp1317
I4385
aI4825
asI1314
(lp1318
I4386
aI4826
asI1315
(lp1319
I4387
aI4827
asI1316
(lp1320
I4388
aI4828
asI1317
(lp1321
I4389
aI4829
asI1318
(lp1322
I4390
aI4830
asI1319
(lp1323
I4391
aI4831
asI1320
(lp1324
I4392
aI4832
asI1321
(lp1325
I4393
aI4833
asI1322
(lp1326
I4394
aI4834
asI1323
(lp1327
I4395
aI4835
asI1324
(lp1328
I4396
aI4836
asI1325
(lp1329
I4397
aI4837
asI1326
(lp1330
I4398
aI4838
asI1327
(lp1331
I4399
aI4839
asI1328
(lp1332
I4400
aI4840
asI1329
(lp1333
I4401
aI4841
asI1330
(lp1334
I4402
aI4842
asI1331
(lp1335
I4403
aI4843
asI1332
(lp1336
I4404
aI4844
asI1333
(lp1337
I4405
aI4845
asI1334
(lp1338
I4406
aI4846
asI1335
(lp1339
I4407
aI4847
asI1336
(lp1340
I4408
aI4848
asI1337
(lp1341
I4409
aI4849
asI1338
(lp1342
I4410
aI4850
asI1339
(lp1343
I4411
aI4851
asI1340
(lp1344
I4412
aI4852
asI1341
(lp1345
I4413
aI4853
asI1342
(lp1346
I4414
aI4854
asI1343
(lp1347
I4415
aI4855
asI1344
(lp1348
I4416
aI4920
asI1345
(lp1349
I4417
aI4921
asI1346
(lp1350
I4418
aI4922
asI1347
(lp1351
I4419
aI4923
asI1348
(lp1352
I4420
aI4924
asI1349
(lp1353
I4421
aI4925
asI1350
(lp1354
I4422
aI4926
asI1351
(lp1355
I4423
aI4927
asI1352
(lp1356
I4424
aI4864
asI1353
(lp1357
I4425
aI4865
asI1354
(lp1358
I4426
aI4866
asI1355
(lp1359
I4427
aI4867
asI1356
(lp1360
I4428
aI4868
asI1357
(lp1361
I4429
aI4869
asI1358
(lp1362
I4430
aI4870
asI1359
(lp1363
I4431
aI4871
asI1360
(lp1364
I4432
aI4872
asI1361
(lp1365
I4433
aI4873
asI1362
(lp1366
I4434
aI4874
asI1363
(lp1367
I4435
aI4875
asI1364
(lp1368
I4436
aI4876
asI1365
(lp1369
I4437
aI4877
asI1366
(lp1370
I4438
aI4878
asI1367
(lp1371
I4439
aI4879
asI1368
(lp1372
I4440
aI4880
asI1369
(lp1373
I4441
aI4881
asI1370
(lp1374
I4442
aI4882
asI1371
(lp1375
I4443
aI4883
asI1372
(lp1376
I4444
aI4884
asI1373
(lp1377
I4445
aI4885
asI1374
(lp1378
I4446
aI4886
asI1375
(lp1379
I4447
aI4887
asI1376
(lp1380
I4448
aI4888
asI1377
(lp1381
I4449
aI4889
asI1378
(lp1382
I4450
aI4890
asI1379
(lp1383
I4451
aI4891
asI1380
(lp1384
I4452
aI4892
asI1381
(lp1385
I4453
aI4893
asI1382
(lp1386
I4454
aI4894
asI1383
(lp1387
I4455
aI4895
asI1384
(lp1388
I4456
aI4896
asI1385
(lp1389
I4457
aI4897
asI1386
(lp1390
I4458
aI4898
asI1387
(lp1391
I4459
aI4899
asI1388
(lp1392
I4460
aI4900
asI1389
(lp1393
I4461
aI4901
asI1390
(lp1394
I4462
aI4902
asI1391
(lp1395
I4463
aI4903
asI1392
(lp1396
I4464
aI4904
asI1393
(lp1397
I4465
aI4905
asI1394
(lp1398
I4466
aI4906
asI1395
(lp1399
I4467
aI4907
asI1396
(lp1400
I4468
aI4908
asI1397
(lp1401
I4469
aI4909
asI1398
(lp1402
I4470
aI4910
asI1399
(lp1403
I4471
aI4911
asI1400
(lp1404
I4472
aI4912
asI1401
(lp1405
I4473
aI4913
asI1402
(lp1406
I4474
aI4914
asI1403
(lp1407
I4475
aI4915
asI1404
(lp1408
I4476
aI4916
asI1405
(lp1409
I4477
aI4917
asI1406
(lp1410
I4478
aI4918
asI1407
(lp1411
I4479
aI4919
asI1408
(lp1412
I4480
aI4984
asI1409
(lp1413
I4481
aI4985
asI1410
(lp1414
I4482
aI4986
asI1411
(lp1415
I4483
aI4987
asI1412
(lp1416
I4484
aI4988
asI1413
(lp1417
I4485
aI4989
asI1414
(lp1418
I4486
aI4990
asI1415
(lp1419
I4487
aI4991
asI1416
(lp1420
I4488
aI4928
asI1417
(lp1421
I4489
aI4929
asI1418
(lp1422
I4490
aI4930
asI1419
(lp1423
I4491
aI4931
asI1420
(lp1424
I4492
aI4932
asI1421
(lp1425
I4493
aI4933
asI1422
(lp1426
I4494
aI4934
asI1423
(lp1427
I4495
aI4935
asI1424
(lp1428
I4496
aI4936
asI1425
(lp1429
I4497
aI4937
asI1426
(lp1430
I4498
aI4938
asI1427
(lp1431
I4499
aI4939
asI1428
(lp1432
I4500
aI4940
asI1429
(lp1433
I4501
aI4941
asI1430
(lp1434
I4502
aI4942
asI1431
(lp1435
I4503
aI4943
asI1432
(lp1436
I4504
aI4944
asI1433
(lp1437
I4505
aI4945
asI1434
(lp1438
I4506
aI4946
asI1435
(lp1439
I4507
aI4947
asI1436
(lp1440
I4508
aI4948
asI1437
(lp1441
I4509
aI4949
asI1438
(lp1442
I4510
aI4950
asI1439
(lp1443
I4511
aI4951
asI1440
(lp1444
I4512
aI4952
asI1441
(lp1445
I4513
aI4953
asI1442
(lp1446
I4514
aI4954
asI1443
(lp1447
I4515
aI4955
asI1444
(lp1448
I4516
aI4956
asI1445
(lp1449
I4517
aI4957
asI1446
(lp1450
I4518
aI4958
asI1447
(lp1451
I4519
aI4959
asI1448
(lp1452
I4520
aI4960
asI1449
(lp1453
I4521
aI4961
asI1450
(lp1454
I4522
aI4962
asI1451
(lp1455
I4523
aI4963
asI1452
(lp1456
I4524
aI4964
asI1453
(lp1457
I4525
aI4965
asI1454
(lp1458
I4526
aI4966
asI1455
(lp1459
I4527
aI4967
asI1456
(lp1460
I4528
aI4968
asI1457
(lp1461
I4529
aI4969
asI1458
(lp1462
I4530
aI4970
asI1459
(lp1463
I4531
aI4971
asI1460
(lp1464
I4532
aI4972
asI1461
(lp1465
I4533
aI4973
asI1462
(lp1466
I4534
aI4974
asI1463
(lp1467
I4535
aI4975
asI1464
(lp1468
I4536
aI4976
asI1465
(lp1469
I4537
aI4977
asI1466
(lp1470
I4538
aI4978
asI1467
(lp1471
I4539
aI4979
asI1468
(lp1472
I4540
aI4980
asI1469
(lp1473
I4541
aI4981
asI1470
(lp1474
I4542
aI4982
asI1471
(lp1475
I4543
aI4983
asI1472
(lp1476
I4544
aI5048
asI1473
(lp1477
I4545
aI5049
asI1474
(lp1478
I4546
aI5050
asI1475
(lp1479
I4547
aI5051
asI1476
(lp1480
I4548
aI5052
asI1477
(lp1481
I4549
aI5053
asI1478
(lp1482
I4550
aI5054
asI1479
(lp1483
I4551
aI5055
asI1480
(lp1484
I4552
aI4992
asI1481
(lp1485
I4553
aI4993
asI1482
(lp1486
I4554
aI4994
asI1483
(lp1487
I4555
aI4995
asI1484
(lp1488
I4556
aI4996
asI1485
(lp1489
I4557
aI4997
asI1486
(lp1490
I4558
aI4998
asI1487
(lp1491
I4559
aI4999
asI1488
(lp1492
I4560
aI5000
asI1489
(lp1493
I4561
aI5001
asI1490
(lp1494
I4562
aI5002
asI1491
(lp1495
I4563
aI5003
asI1492
(lp1496
I4564
aI5004
asI1493
(lp1497
I4565
aI5005
asI1494
(lp1498
I4566
aI5006
asI1495
(lp1499
I4567
aI5007
asI1496
(lp1500
I4568
aI5008
asI1497
(lp1501
I4569
aI5009
asI1498
(lp1502
I4570
aI5010
asI1499
(lp1503
I4571
aI5011
asI1500
(lp1504
I4572
aI5012
asI1501
(lp1505
I4573
aI5013
asI1502
(lp1506
I4574
aI5014
asI1503
(lp1507
I4575
aI5015
asI1504
(lp1508
I4576
aI5016
asI1505
(lp1509
I4577
aI5017
asI1506
(lp1510
I4578
aI5018
asI1507
(lp1511
I4579
aI5019
asI1508
(lp1512
I4580
aI5020
asI1509
(lp1513
I4581
aI5021
asI1510
(lp1514
I4582
aI5022
asI1511
(lp1515
I4583
aI5023
asI1512
(lp1516
I4584
aI5024
asI1513
(lp1517
I4585
aI5025
asI1514
(lp1518
I4586
aI5026
asI1515
(lp1519
I4587
aI5027
asI1516
(lp1520
I4588
aI5028
asI1517
(lp1521
I4589
aI5029
asI1518
(lp1522
I4590
aI5030
asI1519
(lp1523
I4591
aI5031
asI1520
(lp1524
I4592
aI5032
asI1521
(lp1525
I4593
aI5033
asI1522
(lp1526
I4594
aI5034
asI1523
(lp1527
I4595
aI5035
asI1524
(lp1528
I4596
aI5036
asI1525
(lp1529
I4597
aI5037
asI1526
(lp1530
I4598
aI5038
asI1527
(lp1531
I4599
aI5039
asI1528
(lp1532
I4600
aI5040
asI1529
(lp1533
I4601
aI5041
asI1530
(lp1534
I4602
aI5042
asI1531
(lp1535
I4603
aI5043
asI1532
(lp1536
I4604
aI5044
asI1533
(lp1537
I4605
aI5045
asI1534
(lp1538
I4606
aI5046
asI1535
(lp1539
I4607
aI5047
asI1536
(lp1540
I4168
aI4608
asI1537
(lp1541
I4169
aI4609
asI1538
(lp1542
I4170
aI4610
asI1539
(lp1543
I4171
aI4611
asI1540
(lp1544
I4172
aI4612
asI1541
(lp1545
I4173
aI4613
asI1542
(lp1546
I4174
aI4614
asI1543
(lp1547
I4175
aI4615
asI1544
(lp1548
I4176
aI4616
asI1545
(lp1549
I4177
aI4617
asI1546
(lp1550
I4178
aI4618
asI1547
(lp1551
I4179
aI4619
asI1548
(lp1552
I4180
aI4620
asI1549
(lp1553
I4181
aI4621
asI1550
(lp1554
I4182
aI4622
asI1551
(lp1555
I4183
aI4623
asI1552
(lp1556
I4184
aI4624
asI1553
(lp1557
I4185
aI4625
asI1554
(lp1558
I4186
aI4626
asI1555
(lp1559
I4187
aI4627
asI1556
(lp1560
I4188
aI4628
asI1557
(lp1561
I4189
aI4629
asI1558
(lp1562
I4190
aI4630
asI1559
(lp1563
I4191
aI4631
asI1560
(lp1564
I4192
aI4632
asI1561
(lp1565
I4193
aI4633
asI1562
(lp1566
I4194
aI4634
asI1563
(lp1567
I4195
aI4635
asI1564
(lp1568
I4196
aI4636
asI1565
(lp1569
I4197
aI4637
asI1566
(lp1570
I4198
aI4638
asI1567
(lp1571
I4199
aI4639
asI1568
(lp1572
I4200
aI4640
asI1569
(lp1573
I4201
aI4641
asI1570
(lp1574
I4202
aI4642
asI1571
(lp1575
I4203
aI4643
asI1572
(lp1576
I4204
aI4644
asI1573
(lp1577
I4205
aI4645
asI1574
(lp1578
I4206
aI4646
asI1575
(lp1579
I4207
aI4647
asI1576
(lp1580
I4208
aI4648
asI1577
(lp1581
I4209
aI4649
asI1578
(lp1582
I4210
aI4650
asI1579
(lp1583
I4211
aI4651
asI1580
(lp1584
I4212
aI4652
asI1581
(lp1585
I4213
aI4653
asI1582
(lp1586
I4214
aI4654
asI1583
(lp1587
I4215
aI4655
asI1584
(lp1588
I4216
aI4656
asI1585
(lp1589
I4217
aI4657
asI1586
(lp1590
I4218
aI4658
asI1587
(lp1591
I4219
aI4659
asI1588
(lp1592
I4220
aI4660
asI1589
(lp1593
I4221
aI4661
asI1590
(lp1594
I4222
aI4662
asI1591
(lp1595
I4223
aI4663
asI1592
(lp1596
I4160
aI4664
asI1593
(lp1597
I4161
aI4665
asI1594
(lp1598
I4162
aI4666
asI1595
(lp1599
I4163
aI4667
asI1596
(lp1600
I4164
aI4668
asI1597
(lp1601
I4165
aI4669
asI1598
(lp1602
I4166
aI4670
asI1599
(lp1603
I4167
aI4671
asI1600
(lp1604
I4232
aI4672
asI1601
(lp1605
I4233
aI4673
asI1602
(lp1606
I4234
aI4674
asI1603
(lp1607
I4235
aI4675
asI1604
(lp1608
I4236
aI4676
asI1605
(lp1609
I4237
aI4677
asI1606
(lp1610
I4238
aI4678
asI1607
(lp1611
I4239
aI4679
asI1608
(lp1612
I4240
aI4680
asI1609
(lp1613
I4241
aI4681
asI1610
(lp1614
I4242
aI4682
asI1611
(lp1615
I4243
aI4683
asI1612
(lp1616
I4244
aI4684
asI1613
(lp1617
I4245
aI4685
asI1614
(lp1618
I4246
aI4686
asI1615
(lp1619
I4247
aI4687
asI1616
(lp1620
I4248
aI4688
asI1617
(lp1621
I4249
aI4689
asI1618
(lp1622
I4250
aI4690
asI1619
(lp1623
I4251
aI4691
asI1620
(lp1624
I4252
aI4692
asI1621
(lp1625
I4253
aI4693
asI1622
(lp1626
I4254
aI4694
asI1623
(lp1627
I4255
aI4695
asI1624
(lp1628
I4256
aI4696
asI1625
(lp1629
I4257
aI4697
asI1626
(lp1630
I4258
aI4698
asI1627
(lp1631
I4259
aI4699
asI1628
(lp1632
I4260
aI4700
asI1629
(lp1633
I4261
aI4701
asI1630
(lp1634
I4262
aI4702
asI1631
(lp1635
I4263
aI4703
asI1632
(lp1636
I4264
aI4704
asI1633
(lp1637
I4265
aI4705
asI1634
(lp1638
I4266
aI4706
asI1635
(lp1639
I4267
aI4707
asI1636
(lp1640
I4268
aI4708
asI1637
(lp1641
I4269
aI4709
asI1638
(lp1642
I4270
aI4710
asI1639
(lp1643
I4271
aI4711
asI1640
(lp1644
I4272
aI4712
asI1641
(lp1645
I4273
aI4713
asI1642
(lp1646
I4274
aI4714
asI1643
(lp1647
I4275
aI4715
asI1644
(lp1648
I4276
aI4716
asI1645
(lp1649
I4277
aI4717
asI1646
(lp1650
I4278
aI4718
asI1647
(lp1651
I4279
aI4719
asI1648
(lp1652
I4280
aI4720
asI1649
(lp1653
I4281
aI4721
asI1650
(lp1654
I4282
aI4722
asI1651
(lp1655
I4283
aI4723
asI1652
(lp1656
I4284
aI4724
asI1653
(lp1657
I4285
aI4725
asI1654
(lp1658
I4286
aI4726
asI1655
(lp1659
I4287
aI4727
asI1656
(lp1660
I4224
aI4728
asI1657
(lp1661
I4225
aI4729
asI1658
(lp1662
I4226
aI4730
asI1659
(lp1663
I4227
aI4731
asI1660
(lp1664
I4228
aI4732
asI1661
(lp1665
I4229
aI4733
asI1662
(lp1666
I4230
aI4734
asI1663
(lp1667
I4231
aI4735
asI1664
(lp1668
I4296
aI4736
asI1665
(lp1669
I4297
aI4737
asI1666
(lp1670
I4298
aI4738
asI1667
(lp1671
I4299
aI4739
asI1668
(lp1672
I4300
aI4740
asI1669
(lp1673
I4301
aI4741
asI1670
(lp1674
I4302
aI4742
asI1671
(lp1675
I4303
aI4743
asI1672
(lp1676
I4304
aI4744
asI1673
(lp1677
I4305
aI4745
asI1674
(lp1678
I4306
aI4746
asI1675
(lp1679
I4307
aI4747
asI1676
(lp1680
I4308
aI4748
asI1677
(lp1681
I4309
aI4749
asI1678
(lp1682
I4310
aI4750
asI1679
(lp1683
I4311
aI4751
asI1680
(lp1684
I4312
aI4752
asI1681
(lp1685
I4313
aI4753
asI1682
(lp1686
I4314
aI4754
asI1683
(lp1687
I4315
aI4755
asI1684
(lp1688
I4316
aI4756
asI1685
(lp1689
I4317
aI4757
asI1686
(lp1690
I4318
aI4758
asI1687
(lp1691
I4319
aI4759
asI1688
(lp1692
I4320
aI4760
asI1689
(lp1693
I4321
aI4761
asI1690
(lp1694
I4322
aI4762
asI1691
(lp1695
I4323
aI4763
asI1692
(lp1696
I4324
aI4764
asI1693
(lp1697
I4325
aI4765
asI1694
(lp1698
I4326
aI4766
asI1695
(lp1699
I4327
aI4767
asI1696
(lp1700
I4328
aI4768
asI1697
(lp1701
I4329
aI4769
asI1698
(lp1702
I4330
aI4770
asI1699
(lp1703
I4331
aI4771
asI1700
(lp1704
I4332
aI4772
asI1701
(lp1705
I4333
aI4773
asI1702
(lp1706
I4334
aI4774
asI1703
(lp1707
I4335
aI4775
asI1704
(lp1708
I4336
aI4776
asI1705
(lp1709
I4337
aI4777
asI1706
(lp1710
I4338
aI4778
asI1707
(lp1711
I4339
aI4779
asI1708
(lp1712
I4340
aI4780
asI1709
(lp1713
I4341
aI4781
asI1710
(lp1714
I4342
aI4782
asI1711
(lp1715
I4343
aI4783
asI1712
(lp1716
I4344
aI4784
asI1713
(lp1717
I4345
aI4785
asI1714
(lp1718
I4346
aI4786
asI1715
(lp1719
I4347
aI4787
asI1716
(lp1720
I4348
aI4788
asI1717
(lp1721
I4349
aI4789
asI1718
(lp1722
I4350
aI4790
asI1719
(lp1723
I4351
aI4791
asI1720
(lp1724
I4288
aI4792
asI1721
(lp1725
I4289
aI4793
asI1722
(lp1726
I4290
aI4794
asI1723
(lp1727
I4291
aI4795
asI1724
(lp1728
I4292
aI4796
asI1725
(lp1729
I4293
aI4797
asI1726
(lp1730
I4294
aI4798
asI1727
(lp1731
I4295
aI4799
asI1728
(lp1732
I4360
aI4800
asI1729
(lp1733
I4361
aI4801
asI1730
(lp1734
I4362
aI4802
asI1731
(lp1735
I4363
aI4803
asI1732
(lp1736
I4364
aI4804
asI1733
(lp1737
I4365
aI4805
asI1734
(lp1738
I4366
aI4806
asI1735
(lp1739
I4367
aI4807
asI1736
(lp1740
I4368
aI4808
asI1737
(lp1741
I4369
aI4809
asI1738
(lp1742
I4370
aI4810
asI1739
(lp1743
I4371
aI4811
asI1740
(lp1744
I4372
aI4812
asI1741
(lp1745
I4373
aI4813
asI1742
(lp1746
I4374
aI4814
asI1743
(lp1747
I4375
aI4815
asI1744
(lp1748
I4376
aI4816
asI1745
(lp1749
I4377
aI4817
asI1746
(lp1750
I4378
aI4818
asI1747
(lp1751
I4379
aI4819
asI1748
(lp1752
I4380
aI4820
asI1749
(lp1753
I4381
aI4821
asI1750
(lp1754
I4382
aI4822
asI1751
(lp1755
I4383
aI4823
asI1752
(lp1756
I4384
aI4824
asI1753
(lp1757
I4385
aI4825
asI1754
(lp1758
I4386
aI4826
asI1755
(lp1759
I4387
aI4827
asI1756
(lp1760
I4388
aI4828
asI1757
(lp1761
I4389
aI4829
asI1758
(lp1762
I4390
aI4830
asI1759
(lp1763
I4391
aI4831
asI1760
(lp1764
I4392
aI4832
asI1761
(lp1765
I4393
aI4833
asI1762
(lp1766
I4394
aI4834
asI1763
(lp1767
I4395
aI4835
asI1764
(lp1768
I4396
aI4836
asI1765
(lp1769
I4397
aI4837
asI1766
(lp1770
I4398
aI4838
asI1767
(lp1771
I4399
aI4839
asI1768
(lp1772
I4400
aI4840
asI1769
(lp1773
I4401
aI4841
asI1770
(lp1774
I4402
aI4842
asI1771
(lp1775
I4403
aI4843
asI1772
(lp1776
I4404
aI4844
asI1773
(lp1777
I4405
aI4845
asI1774
(lp1778
I4406
aI4846
asI1775
(lp1779
I4407
aI4847
asI1776
(lp1780
I4408
aI4848
asI1777
(lp1781
I4409
aI4849
asI1778
(lp1782
I4410
aI4850
asI1779
(lp1783
I4411
aI4851
asI1780
(lp1784
I4412
aI4852
asI1781
(lp1785
I4413
aI4853
asI1782
(lp1786
I4414
aI4854
asI1783
(lp1787
I4415
aI4855
asI1784
(lp1788
I4352
aI4856
asI1785
(lp1789
I4353
aI4857
asI1786
(lp1790
I4354
aI4858
asI1787
(lp1791
I4355
aI4859
asI1788
(lp1792
I4356
aI4860
asI1789
(lp1793
I4357
aI4861
asI1790
(lp1794
I4358
aI4862
asI1791
(lp1795
I4359
aI4863
asI1792
(lp1796
I4424
aI4864
asI1793
(lp1797
I4425
aI4865
asI1794
(lp1798
I4426
aI4866
asI1795
(lp1799
I4427
aI4867
asI1796
(lp1800
I4428
aI4868
asI1797
(lp1801
I4429
aI4869
asI1798
(lp1802
I4430
aI4870
asI1799
(lp1803
I4431
aI4871
asI1800
(lp1804
I4432
aI4872
asI1801
(lp1805
I4433
aI4873
asI1802
(lp1806
I4434
aI4874
asI1803
(lp1807
I4435
aI4875
asI1804
(lp1808
I4436
aI4876
asI1805
(lp1809
I4437
aI4877
asI1806
(lp1810
I4438
aI4878
asI1807
(lp1811
I4439
aI4879
asI1808
(lp1812
I4440
aI4880
asI1809
(lp1813
I4441
aI4881
asI1810
(lp1814
I4442
aI4882
asI1811
(lp1815
I4443
aI4883
asI1812
(lp1816
I4444
aI4884
asI1813
(lp1817
I4445
aI4885
asI1814
(lp1818
I4446
aI4886
asI1815
(lp1819
I4447
aI4887
asI1816
(lp1820
I4448
aI4888
asI1817
(lp1821
I4449
aI4889
asI1818
(lp1822
I4450
aI4890
asI1819
(lp1823
I4451
aI4891
asI1820
(lp1824
I4452
aI4892
asI1821
(lp1825
I4453
aI4893
asI1822
(lp1826
I4454
aI4894
asI1823
(lp1827
I4455
aI4895
asI1824
(lp1828
I4456
aI4896
asI1825
(lp1829
I4457
aI4897
asI1826
(lp1830
I4458
aI4898
asI1827
(lp1831
I4459
aI4899
asI1828
(lp1832
I4460
aI4900
asI1829
(lp1833
I4461
aI4901
asI1830
(lp1834
I4462
aI4902
asI1831
(lp1835
I4463
aI4903
asI1832
(lp1836
I4464
aI4904
asI1833
(lp1837
I4465
aI4905
asI1834
(lp1838
I4466
aI4906
asI1835
(lp1839
I4467
aI4907
asI1836
(lp1840
I4468
aI4908
asI1837
(lp1841
I4469
aI4909
asI1838
(lp1842
I4470
aI4910
asI1839
(lp1843
I4471
aI4911
asI1840
(lp1844
I4472
aI4912
asI1841
(lp1845
I4473
aI4913
asI1842
(lp1846
I4474
aI4914
asI1843
(lp1847
I4475
aI4915
asI1844
(lp1848
I4476
aI4916
asI1845
(lp1849
I4477
aI4917
asI1846
(lp1850
I4478
aI4918
asI1847
(lp1851
I4479
aI4919
asI1848
(lp1852
I4416
aI4920
asI1849
(lp1853
I4417
aI4921
asI1850
(lp1854
I4418
aI4922
asI1851
(lp1855
I4419
aI4923
asI1852
(lp1856
I4420
aI4924
asI1853
(lp1857
I4421
aI4925
asI1854
(lp1858
I4422
aI4926
asI1855
(lp1859
I4423
aI4927
asI1856
(lp1860
I4488
aI4928
asI1857
(lp1861
I4489
aI4929
asI1858
(lp1862
I4490
aI4930
asI1859
(lp1863
I4491
aI4931
asI1860
(lp1864
I4492
aI4932
asI1861
(lp1865
I4493
aI4933
asI1862
(lp1866
I4494
aI4934
asI1863
(lp1867
I4495
aI4935
asI1864
(lp1868
I4496
aI4936
asI1865
(lp1869
I4497
aI4937
asI1866
(lp1870
I4498
aI4938
asI1867
(lp1871
I4499
aI4939
asI1868
(lp1872
I4500
aI4940
asI1869
(lp1873
I4501
aI4941
asI1870
(lp1874
I4502
aI4942
asI1871
(lp1875
I4503
aI4943
asI1872
(lp1876
I4504
aI4944
asI1873
(lp1877
I4505
aI4945
asI1874
(lp1878
I4506
aI4946
asI1875
(lp1879
I4507
aI4947
asI1876
(lp1880
I4508
aI4948
asI1877
(lp1881
I4509
aI4949
asI1878
(lp1882
I4510
aI4950
asI1879
(lp1883
I4511
aI4951
asI1880
(lp1884
I4512
aI4952
asI1881
(lp1885
I4513
aI4953
asI1882
(lp1886
I4514
aI4954
asI1883
(lp1887
I4515
aI4955
asI1884
(lp1888
I4516
aI4956
asI1885
(lp1889
I4517
aI4957
asI1886
(lp1890
I4518
aI4958
asI1887
(lp1891
I4519
aI4959
asI1888
(lp1892
I4520
aI4960
asI1889
(lp1893
I4521
aI4961
asI1890
(lp1894
I4522
aI4962
asI1891
(lp1895
I4523
aI4963
asI1892
(lp1896
I4524
aI4964
asI1893
(lp1897
I4525
aI4965
asI1894
(lp1898
I4526
aI4966
asI1895
(lp1899
I4527
aI4967
asI1896
(lp1900
I4528
aI4968
asI1897
(lp1901
I4529
aI4969
asI1898
(lp1902
I4530
aI4970
asI1899
(lp1903
I4531
aI4971
asI1900
(lp1904
I4532
aI4972
asI1901
(lp1905
I4533
aI4973
asI1902
(lp1906
I4534
aI4974
asI1903
(lp1907
I4535
aI4975
asI1904
(lp1908
I4536
aI4976
asI1905
(lp1909
I4537
aI4977
asI1906
(lp1910
I4538
aI4978
asI1907
(lp1911
I4539
aI4979
asI1908
(lp1912
I4540
aI4980
asI1909
(lp1913
I4541
aI4981
asI1910
(lp1914
I4542
aI4982
asI1911
(lp1915
I4543
aI4983
asI1912
(lp1916
I4480
aI4984
asI1913
(lp1917
I4481
aI4985
asI1914
(lp1918
I4482
aI4986
asI1915
(lp1919
I4483
aI4987
asI1916
(lp1920
I4484
aI4988
asI1917
(lp1921
I4485
aI4989
asI1918
(lp1922
I4486
aI4990
asI1919
(lp1923
I4487
aI4991
asI1920
(lp1924
I4552
aI4992
asI1921
(lp1925
I4553
aI4993
asI1922
(lp1926
I4554
aI4994
asI1923
(lp1927
I4555
aI4995
asI1924
(lp1928
I4556
aI4996
asI1925
(lp1929
I4557
aI4997
asI1926
(lp1930
I4558
aI4998
asI1927
(lp1931
I4559
aI4999
asI1928
(lp1932
I4560
aI5000
asI1929
(lp1933
I4561
aI5001
asI1930
(lp1934
I4562
aI5002
asI1931
(lp1935
I4563
aI5003
asI1932
(lp1936
I4564
aI5004
asI1933
(lp1937
I4565
aI5005
asI1934
(lp1938
I4566
aI5006
asI1935
(lp1939
I4567
aI5007
asI1936
(lp1940
I4568
aI5008
asI1937
(lp1941
I4569
aI5009
asI1938
(lp1942
I4570
aI5010
asI1939
(lp1943
I4571
aI5011
asI1940
(lp1944
I4572
aI5012
asI1941
(lp1945
I4573
aI5013
asI1942
(lp1946
I4574
aI5014
asI1943
(lp1947
I4575
aI5015
asI1944
(lp1948
I4576
aI5016
asI1945
(lp1949
I4577
aI5017
asI1946
(lp1950
I4578
aI5018
asI1947
(lp1951
I4579
aI5019
asI1948
(lp1952
I4580
aI5020
asI1949
(lp1953
I4581
aI5021
asI1950
(lp1954
I4582
aI5022
asI1951
(lp1955
I4583
aI5023
asI1952
(lp1956
I4584
aI5024
asI1953
(lp1957
I4585
aI5025
asI1954
(lp1958
I4586
aI5026
asI1955
(lp1959
I4587
aI5027
asI1956
(lp1960
I4588
aI5028
asI1957
(lp1961
I4589
aI5029
asI1958
(lp1962
I4590
aI5030
asI1959
(lp1963
I4591
aI5031
asI1960
(lp1964
I4592
aI5032
asI1961
(lp1965
I4593
aI5033
asI1962
(lp1966
I4594
aI5034
asI1963
(lp1967
I4595
aI5035
asI1964
(lp1968
I4596
aI5036
asI1965
(lp1969
I4597
aI5037
asI1966
(lp1970
I4598
aI5038
asI1967
(lp1971
I4599
aI5039
asI1968
(lp1972
I4600
aI5040
asI1969
(lp1973
I4601
aI5041
asI1970
(lp1974
I4602
aI5042
asI1971
(lp1975
I4603
aI5043
asI1972
(lp1976
I4604
aI5044
asI1973
(lp1977
I4605
aI5045
asI1974
(lp1978
I4606
aI5046
asI1975
(lp1979
I4607
aI5047
asI1976
(lp1980
I4544
aI5048
asI1977
(lp1981
I4545
aI5049
asI1978
(lp1982
I4546
aI5050
asI1979
(lp1983
I4547
aI5051
asI1980
(lp1984
I4548
aI5052
asI1981
(lp1985
I4549
aI5053
asI1982
(lp1986
I4550
aI5054
asI1983
(lp1987
I4551
aI5055
asI1984
(lp1988
I4104
aI5056
asI1985
(lp1989
I4105
aI5057
asI1986
(lp1990
I4106
aI5058
asI1987
(lp1991
I4107
aI5059
asI1988
(lp1992
I4108
aI5060
asI1989
(lp1993
I4109
aI5061
asI1990
(lp1994
I4110
aI5062
asI1991
(lp1995
I4111
aI5063
asI1992
(lp1996
I4112
aI5064
asI1993
(lp1997
I4113
aI5065
asI1994
(lp1998
I4114
aI5066
asI1995
(lp1999
I4115
aI5067
asI1996
(lp2000
I4116
aI5068
asI1997
(lp2001
I4117
aI5069
asI1998
(lp2002
I4118
aI5070
asI1999
(lp2003
I4119
aI5071
asI2000
(lp2004
I4120
aI5072
asI2001
(lp2005
I4121
aI5073
asI2002
(lp2006
I4122
aI5074
asI2003
(lp2007
I4123
aI5075
asI2004
(lp2008
I4124
aI5076
asI2005
(lp2009
I4125
aI5077
asI2006
(lp2010
I4126
aI5078
asI2007
(lp2011
I4127
aI5079
asI2008
(lp2012
I4128
aI5080
asI2009
(lp2013
I4129
aI5081
asI2010
(lp2014
I4130
aI5082
asI2011
(lp2015
I4131
aI5083
asI2012
(lp2016
I4132
aI5084
asI2013
(lp2017
I4133
aI5085
asI2014
(lp2018
I4134
aI5086
asI2015
(lp2019
I4135
aI5087
asI2016
(lp2020
I4136
aI5088
asI2017
(lp2021
I4137
aI5089
asI2018
(lp2022
I4138
aI5090
asI2019
(lp2023
I4139
aI5091
asI2020
(lp2024
I4140
aI5092
asI2021
(lp2025
I4141
aI5093
asI2022
(lp2026
I4142
aI5094
asI2023
(lp2027
I4143
aI5095
asI2024
(lp2028
I4144
aI5096
asI2025
(lp2029
I4145
aI5097
asI2026
(lp2030
I4146
aI5098
asI2027
(lp2031
I4147
aI5099
asI2028
(lp2032
I4148
aI5100
asI2029
(lp2033
I4149
aI5101
asI2030
(lp2034
I4150
aI5102
asI2031
(lp2035
I4151
aI5103
asI2032
(lp2036
I4152
aI5104
asI2033
(lp2037
I4153
aI5105
asI2034
(lp2038
I4154
aI5106
asI2035
(lp2039
I4155
aI5107
asI2036
(lp2040
I4156
aI5108
asI2037
(lp2041
I4157
aI5109
asI2038
(lp2042
I4158
aI5110
asI2039
(lp2043
I4159
aI5111
asI2040
(lp2044
I4096
aI5112
asI2041
(lp2045
I4097
aI5113
asI2042
(lp2046
I4098
aI5114
asI2043
(lp2047
I4099
aI5115
asI2044
(lp2048
I4100
aI5116
asI2045
(lp2049
I4101
aI5117
asI2046
(lp2050
I4102
aI5118
asI2047
(lp2051
I4103
aI5119
asI2048
(lp2052
I4096
aI5063
asI2049
(lp2053
I4097
aI5056
asI2050
(lp2054
I4098
aI5057
asI2051
(lp2055
I4099
aI5058
asI2052
(lp2056
I4100
aI5059
asI2053
(lp2057
I4101
aI5060
asI2054
(lp2058
I4102
aI5061
asI2055
(lp2059
I4103
aI5062
asI2056
(lp2060
I4104
aI5071
asI2057
(lp2061
I4105
aI5064
asI2058
(lp2062
I4106
aI5065
asI2059
(lp2063
I4107
aI5066
asI2060
(lp2064
I4108
aI5067
asI2061
(lp2065
I4109
aI5068
asI2062
(lp2066
I4110
aI5069
asI2063
(lp2067
I4111
aI5070
asI2064
(lp2068
I4112
aI5079
asI2065
(lp2069
I4113
aI5072
asI2066
(lp2070
I4114
aI5073
asI2067
(lp2071
I4115
aI5074
asI2068
(lp2072
I4116
aI5075
asI2069
(lp2073
I4117
aI5076
asI2070
(lp2074
I4118
aI5077
asI2071
(lp2075
I4119
aI5078
asI2072
(lp2076
I4120
aI5087
asI2073
(lp2077
I4121
aI5080
asI2074
(lp2078
I4122
aI5081
asI2075
(lp2079
I4123
aI5082
asI2076
(lp2080
I4124
aI5083
asI2077
(lp2081
I4125
aI5084
asI2078
(lp2082
I4126
aI5085
asI2079
(lp2083
I4127
aI5086
asI2080
(lp2084
I4128
aI5095
asI2081
(lp2085
I4129
aI5088
asI2082
(lp2086
I4130
aI5089
asI2083
(lp2087
I4131
aI5090
asI2084
(lp2088
I4132
aI5091
asI2085
(lp2089
I4133
aI5092
asI2086
(lp2090
I4134
aI5093
asI2087
(lp2091
I4135
aI5094
asI2088
(lp2092
I4136
aI5103
asI2089
(lp2093
I4137
aI5096
asI2090
(lp2094
I4138
aI5097
asI2091
(lp2095
I4139
aI5098
asI2092
(lp2096
I4140
aI5099
asI2093
(lp2097
I4141
aI5100
asI2094
(lp2098
I4142
aI5101
asI2095
(lp2099
I4143
aI5102
asI2096
(lp2100
I4144
aI5111
asI2097
(lp2101
I4145
aI5104
asI2098
(lp2102
I4146
aI5105
asI2099
(lp2103
I4147
aI5106
asI2100
(lp2104
I4148
aI5107
asI2101
(lp2105
I4149
aI5108
asI2102
(lp2106
I4150
aI5109
asI2103
(lp2107
I4151
aI5110
asI2104
(lp2108
I4152
aI5119
asI2105
(lp2109
I4153
aI5112
asI2106
(lp2110
I4154
aI5113
asI2107
(lp2111
I4155
aI5114
asI2108
(lp2112
I4156
aI5115
asI2109
(lp2113
I4157
aI5116
asI2110
(lp2114
I4158
aI5117
asI2111
(lp2115
I4159
aI5118
asI2112
(lp2116
I4160
aI4615
asI2113
(lp2117
I4161
aI4608
asI2114
(lp2118
I4162
aI4609
asI2115
(lp2119
I4163
aI4610
asI2116
(lp2120
I4164
aI4611
asI2117
(lp2121
I4165
aI4612
asI2118
(lp2122
I4166
aI4613
asI2119
(lp2123
I4167
aI4614
asI2120
(lp2124
I4168
aI4623
asI2121
(lp2125
I4169
aI4616
asI2122
(lp2126
I4170
aI4617
asI2123
(lp2127
I4171
aI4618
asI2124
(lp2128
I4172
aI4619
asI2125
(lp2129
I4173
aI4620
asI2126
(lp2130
I4174
aI4621
asI2127
(lp2131
I4175
aI4622
asI2128
(lp2132
I4176
aI4631
asI2129
(lp2133
I4177
aI4624
asI2130
(lp2134
I4178
aI4625
asI2131
(lp2135
I4179
aI4626
asI2132
(lp2136
I4180
aI4627
asI2133
(lp2137
I4181
aI4628
asI2134
(lp2138
I4182
aI4629
asI2135
(lp2139
I4183
aI4630
asI2136
(lp2140
I4184
aI4639
asI2137
(lp2141
I4185
aI4632
asI2138
(lp2142
I4186
aI4633
asI2139
(lp2143
I4187
aI4634
asI2140
(lp2144
I4188
aI4635
asI2141
(lp2145
I4189
aI4636
asI2142
(lp2146
I4190
aI4637
asI2143
(lp2147
I4191
aI4638
asI2144
(lp2148
I4192
aI4647
asI2145
(lp2149
I4193
aI4640
asI2146
(lp2150
I4194
aI4641
asI2147
(lp2151
I4195
aI4642
asI2148
(lp2152
I4196
aI4643
asI2149
(lp2153
I4197
aI4644
asI2150
(lp2154
I4198
aI4645
asI2151
(lp2155
I4199
aI4646
asI2152
(lp2156
I4200
aI4655
asI2153
(lp2157
I4201
aI4648
asI2154
(lp2158
I4202
aI4649
asI2155
(lp2159
I4203
aI4650
asI2156
(lp2160
I4204
aI4651
asI2157
(lp2161
I4205
aI4652
asI2158
(lp2162
I4206
aI4653
asI2159
(lp2163
I4207
aI4654
asI2160
(lp2164
I4208
aI4663
asI2161
(lp2165
I4209
aI4656
asI2162
(lp2166
I4210
aI4657
asI2163
(lp2167
I4211
aI4658
asI2164
(lp2168
I4212
aI4659
asI2165
(lp2169
I4213
aI4660
asI2166
(lp2170
I4214
aI4661
asI2167
(lp2171
I4215
aI4662
asI2168
(lp2172
I4216
aI4671
asI2169
(lp2173
I4217
aI4664
asI2170
(lp2174
I4218
aI4665
asI2171
(lp2175
I4219
aI4666
asI2172
(lp2176
I4220
aI4667
asI2173
(lp2177
I4221
aI4668
asI2174
(lp2178
I4222
aI4669
asI2175
(lp2179
I4223
aI4670
asI2176
(lp2180
I4224
aI4679
asI2177
(lp2181
I4225
aI4672
asI2178
(lp2182
I4226
aI4673
asI2179
(lp2183
I4227
aI4674
asI2180
(lp2184
I4228
aI4675
asI2181
(lp2185
I4229
aI4676
asI2182
(lp2186
I4230
aI4677
asI2183
(lp2187
I4231
aI4678
asI2184
(lp2188
I4232
aI4687
asI2185
(lp2189
I4233
aI4680
asI2186
(lp2190
I4234
aI4681
asI2187
(lp2191
I4235
aI4682
asI2188
(lp2192
I4236
aI4683
asI2189
(lp2193
I4237
aI4684
asI2190
(lp2194
I4238
aI4685
asI2191
(lp2195
I4239
aI4686
asI2192
(lp2196
I4240
aI4695
asI2193
(lp2197
I4241
aI4688
asI2194
(lp2198
I4242
aI4689
asI2195
(lp2199
I4243
aI4690
asI2196
(lp2200
I4244
aI4691
asI2197
(lp2201
I4245
aI4692
asI2198
(lp2202
I4246
aI4693
asI2199
(lp2203
I4247
aI4694
asI2200
(lp2204
I4248
aI4703
asI2201
(lp2205
I4249
aI4696
asI2202
(lp2206
I4250
aI4697
asI2203
(lp2207
I4251
aI4698
asI2204
(lp2208
I4252
aI4699
asI2205
(lp2209
I4253
aI4700
asI2206
(lp2210
I4254
aI4701
asI2207
(lp2211
I4255
aI4702
asI2208
(lp2212
I4256
aI4711
asI2209
(lp2213
I4257
aI4704
asI2210
(lp2214
I4258
aI4705
asI2211
(lp2215
I4259
aI4706
asI2212
(lp2216
I4260
aI4707
asI2213
(lp2217
I4261
aI4708
asI2214
(lp2218
I4262
aI4709
asI2215
(lp2219
I4263
aI4710
asI2216
(lp2220
I4264
aI4719
asI2217
(lp2221
I4265
aI4712
asI2218
(lp2222
I4266
aI4713
asI2219
(lp2223
I4267
aI4714
asI2220
(lp2224
I4268
aI4715
asI2221
(lp2225
I4269
aI4716
asI2222
(lp2226
I4270
aI4717
asI2223
(lp2227
I4271
aI4718
asI2224
(lp2228
I4272
aI4727
asI2225
(lp2229
I4273
aI4720
asI2226
(lp2230
I4274
aI4721
asI2227
(lp2231
I4275
aI4722
asI2228
(lp2232
I4276
aI4723
asI2229
(lp2233
I4277
aI4724
asI2230
(lp2234
I4278
aI4725
asI2231
(lp2235
I4279
aI4726
asI2232
(lp2236
I4280
aI4735
asI2233
(lp2237
I4281
aI4728
asI2234
(lp2238
I4282
aI4729
asI2235
(lp2239
I4283
aI4730
asI2236
(lp2240
I4284
aI4731
asI2237
(lp2241
I4285
aI4732
asI2238
(lp2242
I4286
aI4733
asI2239
(lp2243
I4287
aI4734
asI2240
(lp2244
I4288
aI4743
asI2241
(lp2245
I4289
aI4736
asI2242
(lp2246
I4290
aI4737
asI2243
(lp2247
I4291
aI4738
asI2244
(lp2248
I4292
aI4739
asI2245
(lp2249
I4293
aI4740
asI2246
(lp2250
I4294
aI4741
asI2247
(lp2251
I4295
aI4742
asI2248
(lp2252
I4296
aI4751
asI2249
(lp2253
I4297
aI4744
asI2250
(lp2254
I4298
aI4745
asI2251
(lp2255
I4299
aI4746
asI2252
(lp2256
I4300
aI4747
asI2253
(lp2257
I4301
aI4748
asI2254
(lp2258
I4302
aI4749
asI2255
(lp2259
I4303
aI4750
asI2256
(lp2260
I4304
aI4759
asI2257
(lp2261
I4305
aI4752
asI2258
(lp2262
I4306
aI4753
asI2259
(lp2263
I4307
aI4754
asI2260
(lp2264
I4308
aI4755
asI2261
(lp2265
I4309
aI4756
asI2262
(lp2266
I4310
aI4757
asI2263
(lp2267
I4311
aI4758
asI2264
(lp2268
I4312
aI4767
asI2265
(lp2269
I4313
aI4760
asI2266
(lp2270
I4314
aI4761
asI2267
(lp2271
I4315
aI4762
asI2268
(lp2272
I4316
aI4763
asI2269
(lp2273
I4317
aI4764
asI2270
(lp2274
I4318
aI4765
asI2271
(lp2275
I4319
aI4766
asI2272
(lp2276
I4320
aI4775
asI2273
(lp2277
I4321
aI4768
asI2274
(lp2278
I4322
aI4769
asI2275
(lp2279
I4323
aI4770
asI2276
(lp2280
I4324
aI4771
asI2277
(lp2281
I4325
aI4772
asI2278
(lp2282
I4326
aI4773
asI2279
(lp2283
I4327
aI4774
asI2280
(lp2284
I4328
aI4783
asI2281
(lp2285
I4329
aI4776
asI2282
(lp2286
I4330
aI4777
asI2283
(lp2287
I4331
aI4778
asI2284
(lp2288
I4332
aI4779
asI2285
(lp2289
I4333
aI4780
asI2286
(lp2290
I4334
aI4781
asI2287
(lp2291
I4335
aI4782
asI2288
(lp2292
I4336
aI4791
asI2289
(lp2293
I4337
aI4784
asI2290
(lp2294
I4338
aI4785
asI2291
(lp2295
I4339
aI4786
asI2292
(lp2296
I4340
aI4787
asI2293
(lp2297
I4341
aI4788
asI2294
(lp2298
I4342
aI4789
asI2295
(lp2299
I4343
aI4790
asI2296
(lp2300
I4344
aI4799
asI2297
(lp2301
I4345
aI4792
asI2298
(lp2302
I4346
aI4793
asI2299
(lp2303
I4347
aI4794
asI2300
(lp2304
I4348
aI4795
asI2301
(lp2305
I4349
aI4796
asI2302
(lp2306
I4350
aI4797
asI2303
(lp2307
I4351
aI4798
asI2304
(lp2308
I4352
aI4807
asI2305
(lp2309
I4353
aI4800
asI2306
(lp2310
I4354
aI4801
asI2307
(lp2311
I4355
aI4802
asI2308
(lp2312
I4356
aI4803
asI2309
(lp2313
I4357
aI4804
asI2310
(lp2314
I4358
aI4805
asI2311
(lp2315
I4359
aI4806
asI2312
(lp2316
I4360
aI4815
asI2313
(lp2317
I4361
aI4808
asI2314
(lp2318
I4362
aI4809
asI2315
(lp2319
I4363
aI4810
asI2316
(lp2320
I4364
aI4811
asI2317
(lp2321
I4365
aI4812
asI2318
(lp2322
I4366
aI4813
asI2319
(lp2323
I4367
aI4814
asI2320
(lp2324
I4368
aI4823
asI2321
(lp2325
I4369
aI4816
asI2322
(lp2326
I4370
aI4817
asI2323
(lp2327
I4371
aI4818
asI2324
(lp2328
I4372
aI4819
asI2325
(lp2329
I4373
aI4820
asI2326
(lp2330
I4374
aI4821
asI2327
(lp2331
I4375
aI4822
asI2328
(lp2332
I4376
aI4831
asI2329
(lp2333
I4377
aI4824
asI2330
(lp2334
I4378
aI4825
asI2331
(lp2335
I4379
aI4826
asI2332
(lp2336
I4380
aI4827
asI2333
(lp2337
I4381
aI4828
asI2334
(lp2338
I4382
aI4829
asI2335
(lp2339
I4383
aI4830
asI2336
(lp2340
I4384
aI4839
asI2337
(lp2341
I4385
aI4832
asI2338
(lp2342
I4386
aI4833
asI2339
(lp2343
I4387
aI4834
asI2340
(lp2344
I4388
aI4835
asI2341
(lp2345
I4389
aI4836
asI2342
(lp2346
I4390
aI4837
asI2343
(lp2347
I4391
aI4838
asI2344
(lp2348
I4392
aI4847
asI2345
(lp2349
I4393
aI4840
asI2346
(lp2350
I4394
aI4841
asI2347
(lp2351
I4395
aI4842
asI2348
(lp2352
I4396
aI4843
asI2349
(lp2353
I4397
aI4844
asI2350
(lp2354
I4398
aI4845
asI2351
(lp2355
I4399
aI4846
asI2352
(lp2356
I4400
aI4855
asI2353
(lp2357
I4401
aI4848
asI2354
(lp2358
I4402
aI4849
asI2355
(lp2359
I4403
aI4850
asI2356
(lp2360
I4404
aI4851
asI2357
(lp2361
I4405
aI4852
asI2358
(lp2362
I4406
aI4853
asI2359
(lp2363
I4407
aI4854
asI2360
(lp2364
I4408
aI4863
asI2361
(lp2365
I4409
aI4856
asI2362
(lp2366
I4410
aI4857
asI2363
(lp2367
I4411
aI4858
asI2364
(lp2368
I4412
aI4859
asI2365
(lp2369
I4413
aI4860
asI2366
(lp2370
I4414
aI4861
asI2367
(lp2371
I4415
aI4862
asI2368
(lp2372
I4416
aI4871
asI2369
(lp2373
I4417
aI4864
asI2370
(lp2374
I4418
aI4865
asI2371
(lp2375
I4419
aI4866
asI2372
(lp2376
I4420
aI4867
asI2373
(lp2377
I4421
aI4868
asI2374
(lp2378
I4422
aI4869
asI2375
(lp2379
I4423
aI4870
asI2376
(lp2380
I4424
aI4879
asI2377
(lp2381
I4425
aI4872
asI2378
(lp2382
I4426
aI4873
asI2379
(lp2383
I4427
aI4874
asI2380
(lp2384
I4428
aI4875
asI2381
(lp2385
I4429
aI4876
asI2382
(lp2386
I4430
aI4877
asI2383
(lp2387
I4431
aI4878
asI2384
(lp2388
I4432
aI4887
asI2385
(lp2389
I4433
aI4880
asI2386
(lp2390
I4434
aI4881
asI2387
(lp2391
I4435
aI4882
asI2388
(lp2392
I4436
aI4883
asI2389
(lp2393
I4437
aI4884
asI2390
(lp2394
I4438
aI4885
asI2391
(lp2395
I4439
aI4886
asI2392
(lp2396
I4440
aI4895
asI2393
(lp2397
I4441
aI4888
asI2394
(lp2398
I4442
aI4889
asI2395
(lp2399
I4443
aI4890
asI2396
(lp2400
I4444
aI4891
asI2397
(lp2401
I4445
aI4892
asI2398
(lp2402
I4446
aI4893
asI2399
(lp2403
I4447
aI4894
asI2400
(lp2404
I4448
aI4903
asI2401
(lp2405
I4449
aI4896
asI2402
(lp2406
I4450
aI4897
asI2403
(lp2407
I4451
aI4898
asI2404
(lp2408
I4452
aI4899
asI2405
(lp2409
I4453
aI4900
asI2406
(lp2410
I4454
aI4901
asI2407
(lp2411
I4455
aI4902
asI2408
(lp2412
I4456
aI4911
asI2409
(lp2413
I4457
aI4904
asI2410
(lp2414
I4458
aI4905
asI2411
(lp2415
I4459
aI4906
asI2412
(lp2416
I4460
aI4907
asI2413
(lp2417
I4461
aI4908
asI2414
(lp2418
I4462
aI4909
asI2415
(lp2419
I4463
aI4910
asI2416
(lp2420
I4464
aI4919
asI2417
(lp2421
I4465
aI4912
asI2418
(lp2422
I4466
aI4913
asI2419
(lp2423
I4467
aI4914
asI2420
(lp2424
I4468
aI4915
asI2421
(lp2425
I4469
aI4916
asI2422
(lp2426
I4470
aI4917
asI2423
(lp2427
I4471
aI4918
asI2424
(lp2428
I4472
aI4927
asI2425
(lp2429
I4473
aI4920
asI2426
(lp2430
I4474
aI4921
asI2427
(lp2431
I4475
aI4922
asI2428
(lp2432
I4476
aI4923
asI2429
(lp2433
I4477
aI4924
asI2430
(lp2434
I4478
aI4925
asI2431
(lp2435
I4479
aI4926
asI2432
(lp2436
I4480
aI4935
asI2433
(lp2437
I4481
aI4928
asI2434
(lp2438
I4482
aI4929
asI2435
(lp2439
I4483
aI4930
asI2436
(lp2440
I4484
aI4931
asI2437
(lp2441
I4485
aI4932
asI2438
(lp2442
I4486
aI4933
asI2439
(lp2443
I4487
aI4934
asI2440
(lp2444
I4488
aI4943
asI2441
(lp2445
I4489
aI4936
asI2442
(lp2446
I4490
aI4937
asI2443
(lp2447
I4491
aI4938
asI2444
(lp2448
I4492
aI4939
asI2445
(lp2449
I4493
aI4940
asI2446
(lp2450
I4494
aI4941
asI2447
(lp2451
I4495
aI4942
asI2448
(lp2452
I4496
aI4951
asI2449
(lp2453
I4497
aI4944
asI2450
(lp2454
I4498
aI4945
asI2451
(lp2455
I4499
aI4946
asI2452
(lp2456
I4500
aI4947
asI2453
(lp2457
I4501
aI4948
asI2454
(lp2458
I4502
aI4949
asI2455
(lp2459
I4503
aI4950
asI2456
(lp2460
I4504
aI4959
asI2457
(lp2461
I4505
aI4952
asI2458
(lp2462
I4506
aI4953
asI2459
(lp2463
I4507
aI4954
asI2460
(lp2464
I4508
aI4955
asI2461
(lp2465
I4509
aI4956
asI2462
(lp2466
I4510
aI4957
asI2463
(lp2467
I4511
aI4958
asI2464
(lp2468
I4512
aI4967
asI2465
(lp2469
I4513
aI4960
asI2466
(lp2470
I4514
aI4961
asI2467
(lp2471
I4515
aI4962
asI2468
(lp2472
I4516
aI4963
asI2469
(lp2473
I4517
aI4964
asI2470
(lp2474
I4518
aI4965
asI2471
(lp2475
I4519
aI4966
asI2472
(lp2476
I4520
aI4975
asI2473
(lp2477
I4521
aI4968
asI2474
(lp2478
I4522
aI4969
asI2475
(lp2479
I4523
aI4970
asI2476
(lp2480
I4524
aI4971
asI2477
(lp2481
I4525
aI4972
asI2478
(lp2482
I4526
aI4973
asI2479
(lp2483
I4527
aI4974
asI2480
(lp2484
I4528
aI4983
asI2481
(lp2485
I4529
aI4976
asI2482
(lp2486
I4530
aI4977
asI2483
(lp2487
I4531
aI4978
asI2484
(lp2488
I4532
aI4979
asI2485
(lp2489
I4533
aI4980
asI2486
(lp2490
I4534
aI4981
asI2487
(lp2491
I4535
aI4982
asI2488
(lp2492
I4536
aI4991
asI2489
(lp2493
I4537
aI4984
asI2490
(lp2494
I4538
aI4985
asI2491
(lp2495
I4539
aI4986
asI2492
(lp2496
I4540
aI4987
asI2493
(lp2497
I4541
aI4988
asI2494
(lp2498
I4542
aI4989
asI2495
(lp2499
I4543
aI4990
asI2496
(lp2500
I4544
aI4999
asI2497
(lp2501
I4545
aI4992
asI2498
(lp2502
I4546
aI4993
asI2499
(lp2503
I4547
aI4994
asI2500
(lp2504
I4548
aI4995
asI2501
(lp2505
I4549
aI4996
asI2502
(lp2506
I4550
aI4997
asI2503
(lp2507
I4551
aI4998
asI2504
(lp2508
I4552
aI5007
asI2505
(lp2509
I4553
aI5000
asI2506
(lp2510
I4554
aI5001
asI2507
(lp2511
I4555
aI5002
asI2508
(lp2512
I4556
aI5003
asI2509
(lp2513
I4557
aI5004
asI2510
(lp2514
I4558
aI5005
asI2511
(lp2515
I4559
aI5006
asI2512
(lp2516
I4560
aI5015
asI2513
(lp2517
I4561
aI5008
asI2514
(lp2518
I4562
aI5009
asI2515
(lp2519
I4563
aI5010
asI2516
(lp2520
I4564
aI5011
asI2517
(lp2521
I4565
aI5012
asI2518
(lp2522
I4566
aI5013
asI2519
(lp2523
I4567
aI5014
asI2520
(lp2524
I4568
aI5023
asI2521
(lp2525
I4569
aI5016
asI2522
(lp2526
I4570
aI5017
asI2523
(lp2527
I4571
aI5018
asI2524
(lp2528
I4572
aI5019
asI2525
(lp2529
I4573
aI5020
asI2526
(lp2530
I4574
aI5021
asI2527
(lp2531
I4575
aI5022
asI2528
(lp2532
I4576
aI5031
asI2529
(lp2533
I4577
aI5024
asI2530
(lp2534
I4578
aI5025
asI2531
(lp2535
I4579
aI5026
asI2532
(lp2536
I4580
aI5027
asI2533
(lp2537
I4581
aI5028
asI2534
(lp2538
I4582
aI5029
asI2535
(lp2539
I4583
aI5030
asI2536
(lp2540
I4584
aI5039
asI2537
(lp2541
I4585
aI5032
asI2538
(lp2542
I4586
aI5033
asI2539
(lp2543
I4587
aI5034
asI2540
(lp2544
I4588
aI5035
asI2541
(lp2545
I4589
aI5036
asI2542
(lp2546
I4590
aI5037
asI2543
(lp2547
I4591
aI5038
asI2544
(lp2548
I4592
aI5047
asI2545
(lp2549
I4593
aI5040
asI2546
(lp2550
I4594
aI5041
asI2547
(lp2551
I4595
aI5042
asI2548
(lp2552
I4596
aI5043
asI2549
(lp2553
I4597
aI5044
asI2550
(lp2554
I4598
aI5045
asI2551
(lp2555
I4599
aI5046
asI2552
(lp2556
I4600
aI5055
asI2553
(lp2557
I4601
aI5048
asI2554
(lp2558
I4602
aI5049
asI2555
(lp2559
I4603
aI5050
asI2556
(lp2560
I4604
aI5051
asI2557
(lp2561
I4605
aI5052
asI2558
(lp2562
I4606
aI5053
asI2559
(lp2563
I4607
aI5054
asI2560
(lp2564
I4161
aI4608
asI2561
(lp2565
I4162
aI4609
asI2562
(lp2566
I4163
aI4610
asI2563
(lp2567
I4164
aI4611
asI2564
(lp2568
I4165
aI4612
asI2565
(lp2569
I4166
aI4613
asI2566
(lp2570
I4167
aI4614
asI2567
(lp2571
I4160
aI4615
asI2568
(lp2572
I4169
aI4616
asI2569
(lp2573
I4170
aI4617
asI2570
(lp2574
I4171
aI4618
asI2571
(lp2575
I4172
aI4619
asI2572
(lp2576
I4173
aI4620
asI2573
(lp2577
I4174
aI4621
asI2574
(lp2578
I4175
aI4622
asI2575
(lp2579
I4168
aI4623
asI2576
(lp2580
I4177
aI4624
asI2577
(lp2581
I4178
aI4625
asI2578
(lp2582
I4179
aI4626
asI2579
(lp2583
I4180
aI4627
asI2580
(lp2584
I4181
aI4628
asI2581
(lp2585
I4182
aI4629
asI2582
(lp2586
I4183
aI4630
asI2583
(lp2587
I4176
aI4631
asI2584
(lp2588
I4185
aI4632
asI2585
(lp2589
I4186
aI4633
asI2586
(lp2590
I4187
aI4634
asI2587
(lp2591
I4188
aI4635
asI2588
(lp2592
I4189
aI4636
asI2589
(lp2593
I4190
aI4637
asI2590
(lp2594
I4191
aI4638
asI2591
(lp2595
I4184
aI4639
asI2592
(lp2596
I4193
aI4640
asI2593
(lp2597
I4194
aI4641
asI2594
(lp2598
I4195
aI4642
asI2595
(lp2599
I4196
aI4643
asI2596
(lp2600
I4197
aI4644
asI2597
(lp2601
I4198
aI4645
asI2598
(lp2602
I4199
aI4646
asI2599
(lp2603
I4192
aI4647
asI2600
(lp2604
I4201
aI4648
asI2601
(lp2605
I4202
aI4649
asI2602
(lp2606
I4203
aI4650
asI2603
(lp2607
I4204
aI4651
asI2604
(lp2608
I4205
aI4652
asI2605
(lp2609
I4206
aI4653
asI2606
(lp2610
I4207
aI4654
asI2607
(lp2611
I4200
aI4655
asI2608
(lp2612
I4209
aI4656
asI2609
(lp2613
I4210
aI4657
asI2610
(lp2614
I4211
aI4658
asI2611
(lp2615
I4212
aI4659
asI2612
(lp2616
I4213
aI4660
asI2613
(lp2617
I4214
aI4661
asI2614
(lp2618
I4215
aI4662
asI2615
(lp2619
I4208
aI4663
asI2616
(lp2620
I4217
aI4664
asI2617
(lp2621
I4218
aI4665
asI2618
(lp2622
I4219
aI4666
asI2619
(lp2623
I4220
aI4667
asI2620
(lp2624
I4221
aI4668
asI2621
(lp2625
I4222
aI4669
asI2622
(lp2626
I4223
aI4670
asI2623
(lp2627
I4216
aI4671
asI2624
(lp2628
I4225
aI4672
asI2625
(lp2629
I4226
aI4673
asI2626
(lp2630
I4227
aI4674
asI2627
(lp2631
I4228
aI4675
asI2628
(lp2632
I4229
aI4676
asI2629
(lp2633
I4230
aI4677
asI2630
(lp2634
I4231
aI4678
asI2631
(lp2635
I4224
aI4679
asI2632
(lp2636
I4233
aI4680
asI2633
(lp2637
I4234
aI4681
asI2634
(lp2638
I4235
aI4682
asI2635
(lp2639
I4236
aI4683
asI2636
(lp2640
I4237
aI4684
asI2637
(lp2641
I4238
aI4685
asI2638
(lp2642
I4239
aI4686
asI2639
(lp2643
I4232
aI4687
asI2640
(lp2644
I4241
aI4688
asI2641
(lp2645
I4242
aI4689
asI2642
(lp2646
I4243
aI4690
asI2643
(lp2647
I4244
aI4691
asI2644
(lp2648
I4245
aI4692
asI2645
(lp2649
I4246
aI4693
asI2646
(lp2650
I4247
aI4694
asI2647
(lp2651
I4240
aI4695
asI2648
(lp2652
I4249
aI4696
asI2649
(lp2653
I4250
aI4697
asI2650
(lp2654
I4251
aI4698
asI2651
(lp2655
I4252
aI4699
asI2652
(lp2656
I4253
aI4700
asI2653
(lp2657
I4254
aI4701
asI2654
(lp2658
I4255
aI4702
asI2655
(lp2659
I4248
aI4703
asI2656
(lp2660
I4257
aI4704
asI2657
(lp2661
I4258
aI4705
asI2658
(lp2662
I4259
aI4706
asI2659
(lp2663
I4260
aI4707
asI2660
(lp2664
I4261
aI4708
asI2661
(lp2665
I4262
aI4709
asI2662
(lp2666
I4263
aI4710
asI2663
(lp2667
I4256
aI4711
asI2664
(lp2668
I4265
aI4712
asI2665
(lp2669
I4266
aI4713
asI2666
(lp2670
I4267
aI4714
asI2667
(lp2671
I4268
aI4715
asI2668
(lp2672
I4269
aI4716
asI2669
(lp2673
I4270
aI4717
asI2670
(lp2674
I4271
aI4718
asI2671
(lp2675
I4264
aI4719
asI2672
(lp2676
I4273
aI4720
asI2673
(lp2677
I4274
aI4721
asI2674
(lp2678
I4275
aI4722
asI2675
(lp2679
I4276
aI4723
asI2676
(lp2680
I4277
aI4724
asI2677
(lp2681
I4278
aI4725
asI2678
(lp2682
I4279
aI4726
asI2679
(lp2683
I4272
aI4727
asI2680
(lp2684
I4281
aI4728
asI2681
(lp2685
I4282
aI4729
asI2682
(lp2686
I4283
aI4730
asI2683
(lp2687
I4284
aI4731
asI2684
(lp2688
I4285
aI4732
asI2685
(lp2689
I4286
aI4733
asI2686
(lp2690
I4287
aI4734
asI2687
(lp2691
I4280
aI4735
asI2688
(lp2692
I4289
aI4736
asI2689
(lp2693
I4290
aI4737
asI2690
(lp2694
I4291
aI4738
asI2691
(lp2695
I4292
aI4739
asI2692
(lp2696
I4293
aI4740
asI2693
(lp2697
I4294
aI4741
asI2694
(lp2698
I4295
aI4742
asI2695
(lp2699
I4288
aI4743
asI2696
(lp2700
I4297
aI4744
asI2697
(lp2701
I4298
aI4745
asI2698
(lp2702
I4299
aI4746
asI2699
(lp2703
I4300
aI4747
asI2700
(lp2704
I4301
aI4748
asI2701
(lp2705
I4302
aI4749
asI2702
(lp2706
I4303
aI4750
asI2703
(lp2707
I4296
aI4751
asI2704
(lp2708
I4305
aI4752
asI2705
(lp2709
I4306
aI4753
asI2706
(lp2710
I4307
aI4754
asI2707
(lp2711
I4308
aI4755
asI2708
(lp2712
I4309
aI4756
asI2709
(lp2713
I4310
aI4757
asI2710
(lp2714
I4311
aI4758
asI2711
(lp2715
I4304
aI4759
asI2712
(lp2716
I4313
aI4760
asI2713
(lp2717
I4314
aI4761
asI2714
(lp2718
I4315
aI4762
asI2715
(lp2719
I4316
aI4763
asI2716
(lp2720
I4317
aI4764
asI2717
(lp2721
I4318
aI4765
asI2718
(lp2722
I4319
aI4766
asI2719
(lp2723
I4312
aI4767
asI2720
(lp2724
I4321
aI4768
asI2721
(lp2725
I4322
aI4769
asI2722
(lp2726
I4323
aI4770
asI2723
(lp2727
I4324
aI4771
asI2724
(lp2728
I4325
aI4772
asI2725
(lp2729
I4326
aI4773
asI2726
(lp2730
I4327
aI4774
asI2727
(lp2731
I4320
aI4775
asI2728
(lp2732
I4329
aI4776
asI2729
(lp2733
I4330
aI4777
asI2730
(lp2734
I4331
aI4778
asI2731
(lp2735
I4332
aI4779
asI2732
(lp2736
I4333
aI4780
asI2733
(lp2737
I4334
aI4781
asI2734
(lp2738
I4335
aI4782
asI2735
(lp2739
I4328
aI4783
asI2736
(lp2740
I4337
aI4784
asI2737
(lp2741
I4338
aI4785
asI2738
(lp2742
I4339
aI4786
asI2739
(lp2743
I4340
aI4787
asI2740
(lp2744
I4341
aI4788
asI2741
(lp2745
I4342
aI4789
asI2742
(lp2746
I4343
aI4790
asI2743
(lp2747
I4336
aI4791
asI2744
(lp2748
I4345
aI4792
asI2745
(lp2749
I4346
aI4793
asI2746
(lp2750
I4347
aI4794
asI2747
(lp2751
I4348
aI4795
asI2748
(lp2752
I4349
aI4796
asI2749
(lp2753
I4350
aI4797
asI2750
(lp2754
I4351
aI4798
asI2751
(lp2755
I4344
aI4799
asI2752
(lp2756
I4353
aI4800
asI2753
(lp2757
I4354
aI4801
asI2754
(lp2758
I4355
aI4802
asI2755
(lp2759
I4356
aI4803
asI2756
(lp2760
I4357
aI4804
asI2757
(lp2761
I4358
aI4805
asI2758
(lp2762
I4359
aI4806
asI2759
(lp2763
I4352
aI4807
asI2760
(lp2764
I4361
aI4808
asI2761
(lp2765
I4362
aI4809
asI2762
(lp2766
I4363
aI4810
asI2763
(lp2767
I4364
aI4811
asI2764
(lp2768
I4365
aI4812
asI2765
(lp2769
I4366
aI4813
asI2766
(lp2770
I4367
aI4814
asI2767
(lp2771
I4360
aI4815
asI2768
(lp2772
I4369
aI4816
asI2769
(lp2773
I4370
aI4817
asI2770
(lp2774
I4371
aI4818
asI2771
(lp2775
I4372
aI4819
asI2772
(lp2776
I4373
aI4820
asI2773
(lp2777
I4374
aI4821
asI2774
(lp2778
I4375
aI4822
asI2775
(lp2779
I4368
aI4823
asI2776
(lp2780
I4377
aI4824
asI2777
(lp2781
I4378
aI4825
asI2778
(lp2782
I4379
aI4826
asI2779
(lp2783
I4380
aI4827
asI2780
(lp2784
I4381
aI4828
asI2781
(lp2785
I4382
aI4829
asI2782
(lp2786
I4383
aI4830
asI2783
(lp2787
I4376
aI4831
asI2784
(lp2788
I4385
aI4832
asI2785
(lp2789
I4386
aI4833
asI2786
(lp2790
I4387
aI4834
asI2787
(lp2791
I4388
aI4835
asI2788
(lp2792
I4389
aI4836
asI2789
(lp2793
I4390
aI4837
asI2790
(lp2794
I4391
aI4838
asI2791
(lp2795
I4384
aI4839
asI2792
(lp2796
I4393
aI4840
asI2793
(lp2797
I4394
aI4841
asI2794
(lp2798
I4395
aI4842
asI2795
(lp2799
I4396
aI4843
asI2796
(lp2800
I4397
aI4844
asI2797
(lp2801
I4398
aI4845
asI2798
(lp2802
I4399
aI4846
asI2799
(lp2803
I4392
aI4847
asI2800
(lp2804
I4401
aI4848
asI2801
(lp2805
I4402
aI4849
asI2802
(lp2806
I4403
aI4850
asI2803
(lp2807
I4404
aI4851
asI2804
(lp2808
I4405
aI4852
asI2805
(lp2809
I4406
aI4853
asI2806
(lp2810
I4407
aI4854
asI2807
(lp2811
I4400
aI4855
asI2808
(lp2812
I4409
aI4856
asI2809
(lp2813
I4410
aI4857
asI2810
(lp2814
I4411
aI4858
asI2811
(lp2815
I4412
aI4859
asI2812
(lp2816
I4413
aI4860
asI2813
(lp2817
I4414
aI4861
asI2814
(lp2818
I4415
aI4862
asI2815
(lp2819
I4408
aI4863
asI2816
(lp2820
I4417
aI4864
asI2817
(lp2821
I4418
aI4865
asI2818
(lp2822
I4419
aI4866
asI2819
(lp2823
I4420
aI4867
asI2820
(lp2824
I4421
aI4868
asI2821
(lp2825
I4422
aI4869
asI2822
(lp2826
I4423
aI4870
asI2823
(lp2827
I4416
aI4871
asI2824
(lp2828
I4425
aI4872
asI2825
(lp2829
I4426
aI4873
asI2826
(lp2830
I4427
aI4874
asI2827
(lp2831
I4428
aI4875
asI2828
(lp2832
I4429
aI4876
asI2829
(lp2833
I4430
aI4877
asI2830
(lp2834
I4431
aI4878
asI2831
(lp2835
I4424
aI4879
asI2832
(lp2836
I4433
aI4880
asI2833
(lp2837
I4434
aI4881
asI2834
(lp2838
I4435
aI4882
asI2835
(lp2839
I4436
aI4883
asI2836
(lp2840
I4437
aI4884
asI2837
(lp2841
I4438
aI4885
asI2838
(lp2842
I4439
aI4886
asI2839
(lp2843
I4432
aI4887
asI2840
(lp2844
I4441
aI4888
asI2841
(lp2845
I4442
aI4889
asI2842
(lp2846
I4443
aI4890
asI2843
(lp2847
I4444
aI4891
asI2844
(lp2848
I4445
aI4892
asI2845
(lp2849
I4446
aI4893
asI2846
(lp2850
I4447
aI4894
asI2847
(lp2851
I4440
aI4895
asI2848
(lp2852
I4449
aI4896
asI2849
(lp2853
I4450
aI4897
asI2850
(lp2854
I4451
aI4898
asI2851
(lp2855
I4452
aI4899
asI2852
(lp2856
I4453
aI4900
asI2853
(lp2857
I4454
aI4901
asI2854
(lp2858
I4455
aI4902
asI2855
(lp2859
I4448
aI4903
asI2856
(lp2860
I4457
aI4904
asI2857
(lp2861
I4458
aI4905
asI2858
(lp2862
I4459
aI4906
asI2859
(lp2863
I4460
aI4907
asI2860
(lp2864
I4461
aI4908
asI2861
(lp2865
I4462
aI4909
asI2862
(lp2866
I4463
aI4910
asI2863
(lp2867
I4456
aI4911
asI2864
(lp2868
I4465
aI4912
asI2865
(lp2869
I4466
aI4913
asI2866
(lp2870
I4467
aI4914
asI2867
(lp2871
I4468
aI4915
asI2868
(lp2872
I4469
aI4916
asI2869
(lp2873
I4470
aI4917
asI2870
(lp2874
I4471
aI4918
asI2871
(lp2875
I4464
aI4919
asI2872
(lp2876
I4473
aI4920
asI2873
(lp2877
I4474
aI4921
asI2874
(lp2878
I4475
aI4922
asI2875
(lp2879
I4476
aI4923
asI2876
(lp2880
I4477
aI4924
asI2877
(lp2881
I4478
aI4925
asI2878
(lp2882
I4479
aI4926
asI2879
(lp2883
I4472
aI4927
asI2880
(lp2884
I4481
aI4928
asI2881
(lp2885
I4482
aI4929
asI2882
(lp2886
I4483
aI4930
asI2883
(lp2887
I4484
aI4931
asI2884
(lp2888
I4485
aI4932
asI2885
(lp2889
I4486
aI4933
asI2886
(lp2890
I4487
aI4934
asI2887
(lp2891
I4480
aI4935
asI2888
(lp2892
I4489
aI4936
asI2889
(lp2893
I4490
aI4937
asI2890
(lp2894
I4491
aI4938
asI2891
(lp2895
I4492
aI4939
asI2892
(lp2896
I4493
aI4940
asI2893
(lp2897
I4494
aI4941
asI2894
(lp2898
I4495
aI4942
asI2895
(lp2899
I4488
aI4943
asI2896
(lp2900
I4497
aI4944
asI2897
(lp2901
I4498
aI4945
asI2898
(lp2902
I4499
aI4946
asI2899
(lp2903
I4500
aI4947
asI2900
(lp2904
I4501
aI4948
asI2901
(lp2905
I4502
aI4949
asI2902
(lp2906
I4503
aI4950
asI2903
(lp2907
I4496
aI4951
asI2904
(lp2908
I4505
aI4952
asI2905
(lp2909
I4506
aI4953
asI2906
(lp2910
I4507
aI4954
asI2907
(lp2911
I4508
aI4955
asI2908
(lp2912
I4509
aI4956
asI2909
(lp2913
I4510
aI4957
asI2910
(lp2914
I4511
aI4958
asI2911
(lp2915
I4504
aI4959
asI2912
(lp2916
I4513
aI4960
asI2913
(lp2917
I4514
aI4961
asI2914
(lp2918
I4515
aI4962
asI2915
(lp2919
I4516
aI4963
asI2916
(lp2920
I4517
aI4964
asI2917
(lp2921
I4518
aI4965
asI2918
(lp2922
I4519
aI4966
asI2919
(lp2923
I4512
aI4967
asI2920
(lp2924
I4521
aI4968
asI2921
(lp2925
I4522
aI4969
asI2922
(lp2926
I4523
aI4970
asI2923
(lp2927
I4524
aI4971
asI2924
(lp2928
I4525
aI4972
asI2925
(lp2929
I4526
aI4973
asI2926
(lp2930
I4527
aI4974
asI2927
(lp2931
I4520
aI4975
asI2928
(lp2932
I4529
aI4976
asI2929
(lp2933
I4530
aI4977
asI2930
(lp2934
I4531
aI4978
asI2931
(lp2935
I4532
aI4979
asI2932
(lp2936
I4533
aI4980
asI2933
(lp2937
I4534
aI4981
asI2934
(lp2938
I4535
aI4982
asI2935
(lp2939
I4528
aI4983
asI2936
(lp2940
I4537
aI4984
asI2937
(lp2941
I4538
aI4985
asI2938
(lp2942
I4539
aI4986
asI2939
(lp2943
I4540
aI4987
asI2940
(lp2944
I4541
aI4988
asI2941
(lp2945
I4542
aI4989
asI2942
(lp2946
I4543
aI4990
asI2943
(lp2947
I4536
aI4991
asI2944
(lp2948
I4545
aI4992
asI2945
(lp2949
I4546
aI4993
asI2946
(lp2950
I4547
aI4994
asI2947
(lp2951
I4548
aI4995
asI2948
(lp2952
I4549
aI4996
asI2949
(lp2953
I4550
aI4997
asI2950
(lp2954
I4551
aI4998
asI2951
(lp2955
I4544
aI4999
asI2952
(lp2956
I4553
aI5000
asI2953
(lp2957
I4554
aI5001
asI2954
(lp2958
I4555
aI5002
asI2955
(lp2959
I4556
aI5003
asI2956
(lp2960
I4557
aI5004
asI2957
(lp2961
I4558
aI5005
asI2958
(lp2962
I4559
aI5006
asI2959
(lp2963
I4552
aI5007
asI2960
(lp2964
I4561
aI5008
asI2961
(lp2965
I4562
aI5009
asI2962
(lp2966
I4563
aI5010
asI2963
(lp2967
I4564
aI5011
asI2964
(lp2968
I4565
aI5012
asI2965
(lp2969
I4566
aI5013
asI2966
(lp2970
I4567
aI5014
asI2967
(lp2971
I4560
aI5015
asI2968
(lp2972
I4569
aI5016
asI2969
(lp2973
I4570
aI5017
asI2970
(lp2974
I4571
aI5018
asI2971
(lp2975
I4572
aI5019
asI2972
(lp2976
I4573
aI5020
asI2973
(lp2977
I4574
aI5021
asI2974
(lp2978
I4575
aI5022
asI2975
(lp2979
I4568
aI5023
asI2976
(lp2980
I4577
aI5024
asI2977
(lp2981
I4578
aI5025
asI2978
(lp2982
I4579
aI5026
asI2979
(lp2983
I4580
aI5027
asI2980
(lp2984
I4581
aI5028
asI2981
(lp2985
I4582
aI5029
asI2982
(lp2986
I4583
aI5030
asI2983
(lp2987
I4576
aI5031
asI2984
(lp2988
I4585
aI5032
asI2985
(lp2989
I4586
aI5033
asI2986
(lp2990
I4587
aI5034
asI2987
(lp2991
I4588
aI5035
asI2988
(lp2992
I4589
aI5036
asI2989
(lp2993
I4590
aI5037
asI2990
(lp2994
I4591
aI5038
asI2991
(lp2995
I4584
aI5039
asI2992
(lp2996
I4593
aI5040
asI2993
(lp2997
I4594
aI5041
asI2994
(lp2998
I4595
aI5042
asI2995
(lp2999
I4596
aI5043
asI2996
(lp3000
I4597
aI5044
asI2997
(lp3001
I4598
aI5045
asI2998
(lp3002
I4599
aI5046
asI2999
(lp3003
I4592
aI5047
asI3000
(lp3004
I4601
aI5048
asI3001
(lp3005
I4602
aI5049
asI3002
(lp3006
I4603
aI5050
asI3003
(lp3007
I4604
aI5051
asI3004
(lp3008
I4605
aI5052
asI3005
(lp3009
I4606
aI5053
asI3006
(lp3010
I4607
aI5054
asI3007
(lp3011
I4600
aI5055
asI3008
(lp3012
I4097
aI5056
asI3009
(lp3013
I4098
aI5057
asI3010
(lp3014
I4099
aI5058
asI3011
(lp3015
I4100
aI5059
asI3012
(lp3016
I4101
aI5060
asI3013
(lp3017
I4102
aI5061
asI3014
(lp3018
I4103
aI5062
asI3015
(lp3019
I4096
aI5063
asI3016
(lp3020
I4105
aI5064
asI3017
(lp3021
I4106
aI5065
asI3018
(lp3022
I4107
aI5066
asI3019
(lp3023
I4108
aI5067
asI3020
(lp3024
I4109
aI5068
asI3021
(lp3025
I4110
aI5069
asI3022
(lp3026
I4111
aI5070
asI3023
(lp3027
I4104
aI5071
asI3024
(lp3028
I4113
aI5072
asI3025
(lp3029
I4114
aI5073
asI3026
(lp3030
I4115
aI5074
asI3027
(lp3031
I4116
aI5075
asI3028
(lp3032
I4117
aI5076
asI3029
(lp3033
I4118
aI5077
asI3030
(lp3034
I4119
aI5078
asI3031
(lp3035
I4112
aI5079
asI3032
(lp3036
I4121
aI5080
asI3033
(lp3037
I4122
aI5081
asI3034
(lp3038
I4123
aI5082
asI3035
(lp3039
I4124
aI5083
asI3036
(lp3040
I4125
aI5084
asI3037
(lp3041
I4126
aI5085
asI3038
(lp3042
I4127
aI5086
asI3039
(lp3043
I4120
aI5087
asI3040
(lp3044
I4129
aI5088
asI3041
(lp3045
I4130
aI5089
asI3042
(lp3046
I4131
aI5090
asI3043
(lp3047
I4132
aI5091
asI3044
(lp3048
I4133
aI5092
asI3045
(lp3049
I4134
aI5093
asI3046
(lp3050
I4135
aI5094
asI3047
(lp3051
I4128
aI5095
asI3048
(lp3052
I4137
aI5096
asI3049
(lp3053
I4138
aI5097
asI3050
(lp3054
I4139
aI5098
asI3051
(lp3055
I4140
aI5099
asI3052
(lp3056
I4141
aI5100
asI3053
(lp3057
I4142
aI5101
asI3054
(lp3058
I4143
aI5102
asI3055
(lp3059
I4136
aI5103
asI3056
(lp3060
I4145
aI5104
asI3057
(lp3061
I4146
aI5105
asI3058
(lp3062
I4147
aI5106
asI3059
(lp3063
I4148
aI5107
asI3060
(lp3064
I4149
aI5108
asI3061
(lp3065
I4150
aI5109
asI3062
(lp3066
I4151
aI5110
asI3063
(lp3067
I4144
aI5111
asI3064
(lp3068
I4153
aI5112
asI3065
(lp3069
I4154
aI5113
asI3066
(lp3070
I4155
aI5114
asI3067
(lp3071
I4156
aI5115
asI3068
(lp3072
I4157
aI5116
asI3069
(lp3073
I4158
aI5117
asI3070
(lp3074
I4159
aI5118
asI3071
(lp3075
I4152
aI5119
asI3072
(lp3076
I4096
aI4671
asI3073
(lp3077
I4097
aI4664
asI3074
(lp3078
I4098
aI4665
asI3075
(lp3079
I4099
aI4666
asI3076
(lp3080
I4100
aI4667
asI3077
(lp3081
I4101
aI4668
asI3078
(lp3082
I4102
aI4669
asI3079
(lp3083
I4103
aI4670
asI3080
(lp3084
I4104
aI4615
asI3081
(lp3085
I4105
aI4608
asI3082
(lp3086
I4106
aI4609
asI3083
(lp3087
I4107
aI4610
asI3084
(lp3088
I4108
aI4611
asI3085
(lp3089
I4109
aI4612
asI3086
(lp3090
I4110
aI4613
asI3087
(lp3091
I4111
aI4614
asI3088
(lp3092
I4112
aI4623
asI3089
(lp3093
I4113
aI4616
asI3090
(lp3094
I4114
aI4617
asI3091
(lp3095
I4115
aI4618
asI3092
(lp3096
I4116
aI4619
asI3093
(lp3097
I4117
aI4620
asI3094
(lp3098
I4118
aI4621
asI3095
(lp3099
I4119
aI4622
asI3096
(lp3100
I4120
aI4631
asI3097
(lp3101
I4121
aI4624
asI3098
(lp3102
I4122
aI4625
asI3099
(lp3103
I4123
aI4626
asI3100
(lp3104
I4124
aI4627
asI3101
(lp3105
I4125
aI4628
asI3102
(lp3106
I4126
aI4629
asI3103
(lp3107
I4127
aI4630
asI3104
(lp3108
I4128
aI4639
asI3105
(lp3109
I4129
aI4632
asI3106
(lp3110
I4130
aI4633
asI3107
(lp3111
I4131
aI4634
asI3108
(lp3112
I4132
aI4635
asI3109
(lp3113
I4133
aI4636
asI3110
(lp3114
I4134
aI4637
asI3111
(lp3115
I4135
aI4638
asI3112
(lp3116
I4136
aI4647
asI3113
(lp3117
I4137
aI4640
asI3114
(lp3118
I4138
aI4641
asI3115
(lp3119
I4139
aI4642
asI3116
(lp3120
I4140
aI4643
asI3117
(lp3121
I4141
aI4644
asI3118
(lp3122
I4142
aI4645
asI3119
(lp3123
I4143
aI4646
asI3120
(lp3124
I4144
aI4655
asI3121
(lp3125
I4145
aI4648
asI3122
(lp3126
I4146
aI4649
asI3123
(lp3127
I4147
aI4650
asI3124
(lp3128
I4148
aI4651
asI3125
(lp3129
I4149
aI4652
asI3126
(lp3130
I4150
aI4653
asI3127
(lp3131
I4151
aI4654
asI3128
(lp3132
I4152
aI4663
asI3129
(lp3133
I4153
aI4656
asI3130
(lp3134
I4154
aI4657
asI3131
(lp3135
I4155
aI4658
asI3132
(lp3136
I4156
aI4659
asI3133
(lp3137
I4157
aI4660
asI3134
(lp3138
I4158
aI4661
asI3135
(lp3139
I4159
aI4662
asI3136
(lp3140
I4160
aI4735
asI3137
(lp3141
I4161
aI4728
asI3138
(lp3142
I4162
aI4729
asI3139
(lp3143
I4163
aI4730
asI3140
(lp3144
I4164
aI4731
asI3141
(lp3145
I4165
aI4732
asI3142
(lp3146
I4166
aI4733
asI3143
(lp3147
I4167
aI4734
asI3144
(lp3148
I4168
aI4679
asI3145
(lp3149
I4169
aI4672
asI3146
(lp3150
I4170
aI4673
asI3147
(lp3151
I4171
aI4674
asI3148
(lp3152
I4172
aI4675
asI3149
(lp3153
I4173
aI4676
asI3150
(lp3154
I4174
aI4677
asI3151
(lp3155
I4175
aI4678
asI3152
(lp3156
I4176
aI4687
asI3153
(lp3157
I4177
aI4680
asI3154
(lp3158
I4178
aI4681
asI3155
(lp3159
I4179
aI4682
asI3156
(lp3160
I4180
aI4683
asI3157
(lp3161
I4181
aI4684
asI3158
(lp3162
I4182
aI4685
asI3159
(lp3163
I4183
aI4686
asI3160
(lp3164
I4184
aI4695
asI3161
(lp3165
I4185
aI4688
asI3162
(lp3166
I4186
aI4689
asI3163
(lp3167
I4187
aI4690
asI3164
(lp3168
I4188
aI4691
asI3165
(lp3169
I4189
aI4692
asI3166
(lp3170
I4190
aI4693
asI3167
(lp3171
I4191
aI4694
asI3168
(lp3172
I4192
aI4703
asI3169
(lp3173
I4193
aI4696
asI3170
(lp3174
I4194
aI4697
asI3171
(lp3175
I4195
aI4698
asI3172
(lp3176
I4196
aI4699
asI3173
(lp3177
I4197
aI4700
asI3174
(lp3178
I4198
aI4701
asI3175
(lp3179
I4199
aI4702
asI3176
(lp3180
I4200
aI4711
asI3177
(lp3181
I4201
aI4704
asI3178
(lp3182
I4202
aI4705
asI3179
(lp3183
I4203
aI4706
asI3180
(lp3184
I4204
aI4707
asI3181
(lp3185
I4205
aI4708
asI3182
(lp3186
I4206
aI4709
asI3183
(lp3187
I4207
aI4710
asI3184
(lp3188
I4208
aI4719
asI3185
(lp3189
I4209
aI4712
asI3186
(lp3190
I4210
aI4713
asI3187
(lp3191
I4211
aI4714
asI3188
(lp3192
I4212
aI4715
asI3189
(lp3193
I4213
aI4716
asI3190
(lp3194
I4214
aI4717
asI3191
(lp3195
I4215
aI4718
asI3192
(lp3196
I4216
aI4727
asI3193
(lp3197
I4217
aI4720
asI3194
(lp3198
I4218
aI4721
asI3195
(lp3199
I4219
aI4722
asI3196
(lp3200
I4220
aI4723
asI3197
(lp3201
I4221
aI4724
asI3198
(lp3202
I4222
aI4725
asI3199
(lp3203
I4223
aI4726
asI3200
(lp3204
I4224
aI4799
asI3201
(lp3205
I4225
aI4792
asI3202
(lp3206
I4226
aI4793
asI3203
(lp3207
I4227
aI4794
asI3204
(lp3208
I4228
aI4795
asI3205
(lp3209
I4229
aI4796
asI3206
(lp3210
I4230
aI4797
asI3207
(lp3211
I4231
aI4798
asI3208
(lp3212
I4232
aI4743
asI3209
(lp3213
I4233
aI4736
asI3210
(lp3214
I4234
aI4737
asI3211
(lp3215
I4235
aI4738
asI3212
(lp3216
I4236
aI4739
asI3213
(lp3217
I4237
aI4740
asI3214
(lp3218
I4238
aI4741
asI3215
(lp3219
I4239
aI4742
asI3216
(lp3220
I4240
aI4751
asI3217
(lp3221
I4241
aI4744
asI3218
(lp3222
I4242
aI4745
asI3219
(lp3223
I4243
aI4746
asI3220
(lp3224
I4244
aI4747
asI3221
(lp3225
I4245
aI4748
asI3222
(lp3226
I4246
aI4749
asI3223
(lp3227
I4247
aI4750
asI3224
(lp3228
I4248
aI4759
asI3225
(lp3229
I4249
aI4752
asI3226
(lp3230
I4250
aI4753
asI3227
(lp3231
I4251
aI4754
asI3228
(lp3232
I4252
aI4755
asI3229
(lp3233
I4253
aI4756
asI3230
(lp3234
I4254
aI4757
asI3231
(lp3235
I4255
aI4758
asI3232
(lp3236
I4256
aI4767
asI3233
(lp3237
I4257
aI4760
asI3234
(lp3238
I4258
aI4761
asI3235
(lp3239
I4259
aI4762
asI3236
(lp3240
I4260
aI4763
asI3237
(lp3241
I4261
aI4764
asI3238
(lp3242
I4262
aI4765
asI3239
(lp3243
I4263
aI4766
asI3240
(lp3244
I4264
aI4775
asI3241
(lp3245
I4265
aI4768
asI3242
(lp3246
I4266
aI4769
asI3243
(lp3247
I4267
aI4770
asI3244
(lp3248
I4268
aI4771
asI3245
(lp3249
I4269
aI4772
asI3246
(lp3250
I4270
aI4773
asI3247
(lp3251
I4271
aI4774
asI3248
(lp3252
I4272
aI4783
asI3249
(lp3253
I4273
aI4776
asI3250
(lp3254
I4274
aI4777
asI3251
(lp3255
I4275
aI4778
asI3252
(lp3256
I4276
aI4779
asI3253
(lp3257
I4277
aI4780
asI3254
(lp3258
I4278
aI4781
asI3255
(lp3259
I4279
aI4782
asI3256
(lp3260
I4280
aI4791
asI3257
(lp3261
I4281
aI4784
asI3258
(lp3262
I4282
aI4785
asI3259
(lp3263
I4283
aI4786
asI3260
(lp3264
I4284
aI4787
asI3261
(lp3265
I4285
aI4788
asI3262
(lp3266
I4286
aI4789
asI3263
(lp3267
I4287
aI4790
asI3264
(lp3268
I4288
aI4863
asI3265
(lp3269
I4289
aI4856
asI3266
(lp3270
I4290
aI4857
asI3267
(lp3271
I4291
aI4858
asI3268
(lp3272
I4292
aI4859
asI3269
(lp3273
I4293
aI4860
asI3270
(lp3274
I4294
aI4861
asI3271
(lp3275
I4295
aI4862
asI3272
(lp3276
I4296
aI4807
asI3273
(lp3277
I4297
aI4800
asI3274
(lp3278
I4298
aI4801
asI3275
(lp3279
I4299
aI4802
asI3276
(lp3280
I4300
aI4803
asI3277
(lp3281
I4301
aI4804
asI3278
(lp3282
I4302
aI4805
asI3279
(lp3283
I4303
aI4806
asI3280
(lp3284
I4304
aI4815
asI3281
(lp3285
I4305
aI4808
asI3282
(lp3286
I4306
aI4809
asI3283
(lp3287
I4307
aI4810
asI3284
(lp3288
I4308
aI4811
asI3285
(lp3289
I4309
aI4812
asI3286
(lp3290
I4310
aI4813
asI3287
(lp3291
I4311
aI4814
asI3288
(lp3292
I4312
aI4823
asI3289
(lp3293
I4313
aI4816
asI3290
(lp3294
I4314
aI4817
asI3291
(lp3295
I4315
aI4818
asI3292
(lp3296
I4316
aI4819
asI3293
(lp3297
I4317
aI4820
asI3294
(lp3298
I4318
aI4821
asI3295
(lp3299
I4319
aI4822
asI3296
(lp3300
I4320
aI4831
asI3297
(lp3301
I4321
aI4824
asI3298
(lp3302
I4322
aI4825
asI3299
(lp3303
I4323
aI4826
asI3300
(lp3304
I4324
aI4827
asI3301
(lp3305
I4325
aI4828
asI3302
(lp3306
I4326
aI4829
asI3303
(lp3307
I4327
aI4830
asI3304
(lp3308
I4328
aI4839
asI3305
(lp3309
I4329
aI4832
asI3306
(lp3310
I4330
aI4833
asI3307
(lp3311
I4331
aI4834
asI3308
(lp3312
I4332
aI4835
asI3309
(lp3313
I4333
aI4836
asI3310
(lp3314
I4334
aI4837
asI3311
(lp3315
I4335
aI4838
asI3312
(lp3316
I4336
aI4847
asI3313
(lp3317
I4337
aI4840
asI3314
(lp3318
I4338
aI4841
asI3315
(lp3319
I4339
aI4842
asI3316
(lp3320
I4340
aI4843
asI3317
(lp3321
I4341
aI4844
asI3318
(lp3322
I4342
aI4845
asI3319
(lp3323
I4343
aI4846
asI3320
(lp3324
I4344
aI4855
asI3321
(lp3325
I4345
aI4848
asI3322
(lp3326
I4346
aI4849
asI3323
(lp3327
I4347
aI4850
asI3324
(lp3328
I4348
aI4851
asI3325
(lp3329
I4349
aI4852
asI3326
(lp3330
I4350
aI4853
asI3327
(lp3331
I4351
aI4854
asI3328
(lp3332
I4352
aI4927
asI3329
(lp3333
I4353
aI4920
asI3330
(lp3334
I4354
aI4921
asI3331
(lp3335
I4355
aI4922
asI3332
(lp3336
I4356
aI4923
asI3333
(lp3337
I4357
aI4924
asI3334
(lp3338
I4358
aI4925
asI3335
(lp3339
I4359
aI4926
asI3336
(lp3340
I4360
aI4871
asI3337
(lp3341
I4361
aI4864
asI3338
(lp3342
I4362
aI4865
asI3339
(lp3343
I4363
aI4866
asI3340
(lp3344
I4364
aI4867
asI3341
(lp3345
I4365
aI4868
asI3342
(lp3346
I4366
aI4869
asI3343
(lp3347
I4367
aI4870
asI3344
(lp3348
I4368
aI4879
asI3345
(lp3349
I4369
aI4872
asI3346
(lp3350
I4370
aI4873
asI3347
(lp3351
I4371
aI4874
asI3348
(lp3352
I4372
aI4875
asI3349
(lp3353
I4373
aI4876
asI3350
(lp3354
I4374
aI4877
asI3351
(lp3355
I4375
aI4878
asI3352
(lp3356
I4376
aI4887
asI3353
(lp3357
I4377
aI4880
asI3354
(lp3358
I4378
aI4881
asI3355
(lp3359
I4379
aI4882
asI3356
(lp3360
I4380
aI4883
asI3357
(lp3361
I4381
aI4884
asI3358
(lp3362
I4382
aI4885
asI3359
(lp3363
I4383
aI4886
asI3360
(lp3364
I4384
aI4895
asI3361
(lp3365
I4385
aI4888
asI3362
(lp3366
I4386
aI4889
asI3363
(lp3367
I4387
aI4890
asI3364
(lp3368
I4388
aI4891
asI3365
(lp3369
I4389
aI4892
asI3366
(lp3370
I4390
aI4893
asI3367
(lp3371
I4391
aI4894
asI3368
(lp3372
I4392
aI4903
asI3369
(lp3373
I4393
aI4896
asI3370
(lp3374
I4394
aI4897
asI3371
(lp3375
I4395
aI4898
asI3372
(lp3376
I4396
aI4899
asI3373
(lp3377
I4397
aI4900
asI3374
(lp3378
I4398
aI4901
asI3375
(lp3379
I4399
aI4902
asI3376
(lp3380
I4400
aI4911
asI3377
(lp3381
I4401
aI4904
asI3378
(lp3382
I4402
aI4905
asI3379
(lp3383
I4403
aI4906
asI3380
(lp3384
I4404
aI4907
asI3381
(lp3385
I4405
aI4908
asI3382
(lp3386
I4406
aI4909
asI3383
(lp3387
I4407
aI4910
asI3384
(lp3388
I4408
aI4919
asI3385
(lp3389
I4409
aI4912
asI3386
(lp3390
I4410
aI4913
asI3387
(lp3391
I4411
aI4914
asI3388
(lp3392
I4412
aI4915
asI3389
(lp3393
I4413
aI4916
asI3390
(lp3394
I4414
aI4917
asI3391
(lp3395
I4415
aI4918
asI3392
(lp3396
I4416
aI4991
asI3393
(lp3397
I4417
aI4984
asI3394
(lp3398
I4418
aI4985
asI3395
(lp3399
I4419
aI4986
asI3396
(lp3400
I4420
aI4987
asI3397
(lp3401
I4421
aI4988
asI3398
(lp3402
I4422
aI4989
asI3399
(lp3403
I4423
aI4990
asI3400
(lp3404
I4424
aI4935
asI3401
(lp3405
I4425
aI4928
asI3402
(lp3406
I4426
aI4929
asI3403
(lp3407
I4427
aI4930
asI3404
(lp3408
I4428
aI4931
asI3405
(lp3409
I4429
aI4932
asI3406
(lp3410
I4430
aI4933
asI3407
(lp3411
I4431
aI4934
asI3408
(lp3412
I4432
aI4943
asI3409
(lp3413
I4433
aI4936
asI3410
(lp3414
I4434
aI4937
asI3411
(lp3415
I4435
aI4938
asI3412
(lp3416
I4436
aI4939
asI3413
(lp3417
I4437
aI4940
asI3414
(lp3418
I4438
aI4941
asI3415
(lp3419
I4439
aI4942
asI3416
(lp3420
I4440
aI4951
asI3417
(lp3421
I4441
aI4944
asI3418
(lp3422
I4442
aI4945
asI3419
(lp3423
I4443
aI4946
asI3420
(lp3424
I4444
aI4947
asI3421
(lp3425
I4445
aI4948
asI3422
(lp3426
I4446
aI4949
asI3423
(lp3427
I4447
aI4950
asI3424
(lp3428
I4448
aI4959
asI3425
(lp3429
I4449
aI4952
asI3426
(lp3430
I4450
aI4953
asI3427
(lp3431
I4451
aI4954
asI3428
(lp3432
I4452
aI4955
asI3429
(lp3433
I4453
aI4956
asI3430
(lp3434
I4454
aI4957
asI3431
(lp3435
I4455
aI4958
asI3432
(lp3436
I4456
aI4967
asI3433
(lp3437
I4457
aI4960
asI3434
(lp3438
I4458
aI4961
asI3435
(lp3439
I4459
aI4962
asI3436
(lp3440
I4460
aI4963
asI3437
(lp3441
I4461
aI4964
asI3438
(lp3442
I4462
aI4965
asI3439
(lp3443
I4463
aI4966
asI3440
(lp3444
I4464
aI4975
asI3441
(lp3445
I4465
aI4968
asI3442
(lp3446
I4466
aI4969
asI3443
(lp3447
I4467
aI4970
asI3444
(lp3448
I4468
aI4971
asI3445
(lp3449
I4469
aI4972
asI3446
(lp3450
I4470
aI4973
asI3447
(lp3451
I4471
aI4974
asI3448
(lp3452
I4472
aI4983
asI3449
(lp3453
I4473
aI4976
asI3450
(lp3454
I4474
aI4977
asI3451
(lp3455
I4475
aI4978
asI3452
(lp3456
I4476
aI4979
asI3453
(lp3457
I4477
aI4980
asI3454
(lp3458
I4478
aI4981
asI3455
(lp3459
I4479
aI4982
asI3456
(lp3460
I4480
aI5055
asI3457
(lp3461
I4481
aI5048
asI3458
(lp3462
I4482
aI5049
asI3459
(lp3463
I4483
aI5050
asI3460
(lp3464
I4484
aI5051
asI3461
(lp3465
I4485
aI5052
asI3462
(lp3466
I4486
aI5053
asI3463
(lp3467
I4487
aI5054
asI3464
(lp3468
I4488
aI4999
asI3465
(lp3469
I4489
aI4992
asI3466
(lp3470
I4490
aI4993
asI3467
(lp3471
I4491
aI4994
asI3468
(lp3472
I4492
aI4995
asI3469
(lp3473
I4493
aI4996
asI3470
(lp3474
I4494
aI4997
asI3471
(lp3475
I4495
aI4998
asI3472
(lp3476
I4496
aI5007
asI3473
(lp3477
I4497
aI5000
asI3474
(lp3478
I4498
aI5001
asI3475
(lp3479
I4499
aI5002
asI3476
(lp3480
I4500
aI5003
asI3477
(lp3481
I4501
aI5004
asI3478
(lp3482
I4502
aI5005
asI3479
(lp3483
I4503
aI5006
asI3480
(lp3484
I4504
aI5015
asI3481
(lp3485
I4505
aI5008
asI3482
(lp3486
I4506
aI5009
asI3483
(lp3487
I4507
aI5010
asI3484
(lp3488
I4508
aI5011
asI3485
(lp3489
I4509
aI5012
asI3486
(lp3490
I4510
aI5013
asI3487
(lp3491
I4511
aI5014
asI3488
(lp3492
I4512
aI5023
asI3489
(lp3493
I4513
aI5016
asI3490
(lp3494
I4514
aI5017
asI3491
(lp3495
I4515
aI5018
asI3492
(lp3496
I4516
aI5019
asI3493
(lp3497
I4517
aI5020
asI3494
(lp3498
I4518
aI5021
asI3495
(lp3499
I4519
aI5022
asI3496
(lp3500
I4520
aI5031
asI3497
(lp3501
I4521
aI5024
asI3498
(lp3502
I4522
aI5025
asI3499
(lp3503
I4523
aI5026
asI3500
(lp3504
I4524
aI5027
asI3501
(lp3505
I4525
aI5028
asI3502
(lp3506
I4526
aI5029
asI3503
(lp3507
I4527
aI5030
asI3504
(lp3508
I4528
aI5039
asI3505
(lp3509
I4529
aI5032
asI3506
(lp3510
I4530
aI5033
asI3507
(lp3511
I4531
aI5034
asI3508
(lp3512
I4532
aI5035
asI3509
(lp3513
I4533
aI5036
asI3510
(lp3514
I4534
aI5037
asI3511
(lp3515
I4535
aI5038
asI3512
(lp3516
I4536
aI5047
asI3513
(lp3517
I4537
aI5040
asI3514
(lp3518
I4538
aI5041
asI3515
(lp3519
I4539
aI5042
asI3516
(lp3520
I4540
aI5043
asI3517
(lp3521
I4541
aI5044
asI3518
(lp3522
I4542
aI5045
asI3519
(lp3523
I4543
aI5046
asI3520
(lp3524
I4544
aI5119
asI3521
(lp3525
I4545
aI5112
asI3522
(lp3526
I4546
aI5113
asI3523
(lp3527
I4547
aI5114
asI3524
(lp3528
I4548
aI5115
asI3525
(lp3529
I4549
aI5116
asI3526
(lp3530
I4550
aI5117
asI3527
(lp3531
I4551
aI5118
asI3528
(lp3532
I4552
aI5063
asI3529
(lp3533
I4553
aI5056
asI3530
(lp3534
I4554
aI5057
asI3531
(lp3535
I4555
aI5058
asI3532
(lp3536
I4556
aI5059
asI3533
(lp3537
I4557
aI5060
asI3534
(lp3538
I4558
aI5061
asI3535
(lp3539
I4559
aI5062
asI3536
(lp3540
I4560
aI5071
asI3537
(lp3541
I4561
aI5064
asI3538
(lp3542
I4562
aI5065
asI3539
(lp3543
I4563
aI5066
asI3540
(lp3544
I4564
aI5067
asI3541
(lp3545
I4565
aI5068
asI3542
(lp3546
I4566
aI5069
asI3543
(lp3547
I4567
aI5070
asI3544
(lp3548
I4568
aI5079
asI3545
(lp3549
I4569
aI5072
asI3546
(lp3550
I4570
aI5073
asI3547
(lp3551
I4571
aI5074
asI3548
(lp3552
I4572
aI5075
asI3549
(lp3553
I4573
aI5076
asI3550
(lp3554
I4574
aI5077
asI3551
(lp3555
I4575
aI5078
asI3552
(lp3556
I4576
aI5087
asI3553
(lp3557
I4577
aI5080
asI3554
(lp3558
I4578
aI5081
asI3555
(lp3559
I4579
aI5082
asI3556
(lp3560
I4580
aI5083
asI3557
(lp3561
I4581
aI5084
asI3558
(lp3562
I4582
aI5085
asI3559
(lp3563
I4583
aI5086
asI3560
(lp3564
I4584
aI5095
asI3561
(lp3565
I4585
aI5088
asI3562
(lp3566
I4586
aI5089
asI3563
(lp3567
I4587
aI5090
asI3564
(lp3568
I4588
aI5091
asI3565
(lp3569
I4589
aI5092
asI3566
(lp3570
I4590
aI5093
asI3567
(lp3571
I4591
aI5094
asI3568
(lp3572
I4592
aI5103
asI3569
(lp3573
I4593
aI5096
asI3570
(lp3574
I4594
aI5097
asI3571
(lp3575
I4595
aI5098
asI3572
(lp3576
I4596
aI5099
asI3573
(lp3577
I4597
aI5100
asI3574
(lp3578
I4598
aI5101
asI3575
(lp3579
I4599
aI5102
asI3576
(lp3580
I4600
aI5111
asI3577
(lp3581
I4601
aI5104
asI3578
(lp3582
I4602
aI5105
asI3579
(lp3583
I4603
aI5106
asI3580
(lp3584
I4604
aI5107
asI3581
(lp3585
I4605
aI5108
asI3582
(lp3586
I4606
aI5109
asI3583
(lp3587
I4607
aI5110
asI3584
(lp3588
I4105
aI4608
asI3585
(lp3589
I4106
aI4609
asI3586
(lp3590
I4107
aI4610
asI3587
(lp3591
I4108
aI4611
asI3588
(lp3592
I4109
aI4612
asI3589
(lp3593
I4110
aI4613
asI3590
(lp3594
I4111
aI4614
asI3591
(lp3595
I4104
aI4615
asI3592
(lp3596
I4113
aI4616
asI3593
(lp3597
I4114
aI4617
asI3594
(lp3598
I4115
aI4618
asI3595
(lp3599
I4116
aI4619
asI3596
(lp3600
I4117
aI4620
asI3597
(lp3601
I4118
aI4621
asI3598
(lp3602
I4119
aI4622
asI3599
(lp3603
I4112
aI4623
asI3600
(lp3604
I4121
aI4624
asI3601
(lp3605
I4122
aI4625
asI3602
(lp3606
I4123
aI4626
asI3603
(lp3607
I4124
aI4627
asI3604
(lp3608
I4125
aI4628
asI3605
(lp3609
I4126
aI4629
asI3606
(lp3610
I4127
aI4630
asI3607
(lp3611
I4120
aI4631
asI3608
(lp3612
I4129
aI4632
asI3609
(lp3613
I4130
aI4633
asI3610
(lp3614
I4131
aI4634
asI3611
(lp3615
I4132
aI4635
asI3612
(lp3616
I4133
aI4636
asI3613
(lp3617
I4134
aI4637
asI3614
(lp3618
I4135
aI4638
asI3615
(lp3619
I4128
aI4639
asI3616
(lp3620
I4137
aI4640
asI3617
(lp3621
I4138
aI4641
asI3618
(lp3622
I4139
aI4642
asI3619
(lp3623
I4140
aI4643
asI3620
(lp3624
I4141
aI4644
asI3621
(lp3625
I4142
aI4645
asI3622
(lp3626
I4143
aI4646
asI3623
(lp3627
I4136
aI4647
asI3624
(lp3628
I4145
aI4648
asI3625
(lp3629
I4146
aI4649
asI3626
(lp3630
I4147
aI4650
asI3627
(lp3631
I4148
aI4651
asI3628
(lp3632
I4149
aI4652
asI3629
(lp3633
I4150
aI4653
asI3630
(lp3634
I4151
aI4654
asI3631
(lp3635
I4144
aI4655
asI3632
(lp3636
I4153
aI4656
asI3633
(lp3637
I4154
aI4657
asI3634
(lp3638
I4155
aI4658
asI3635
(lp3639
I4156
aI4659
asI3636
(lp3640
I4157
aI4660
asI3637
(lp3641
I4158
aI4661
asI3638
(lp3642
I4159
aI4662
asI3639
(lp3643
I4152
aI4663
asI3640
(lp3644
I4097
aI4664
asI3641
(lp3645
I4098
aI4665
asI3642
(lp3646
I4099
aI4666
asI3643
(lp3647
I4100
aI4667
asI3644
(lp3648
I4101
aI4668
asI3645
(lp3649
I4102
aI4669
asI3646
(lp3650
I4103
aI4670
asI3647
(lp3651
I4096
aI4671
asI3648
(lp3652
I4169
aI4672
asI3649
(lp3653
I4170
aI4673
asI3650
(lp3654
I4171
aI4674
asI3651
(lp3655
I4172
aI4675
asI3652
(lp3656
I4173
aI4676
asI3653
(lp3657
I4174
aI4677
asI3654
(lp3658
I4175
aI4678
asI3655
(lp3659
I4168
aI4679
asI3656
(lp3660
I4177
aI4680
asI3657
(lp3661
I4178
aI4681
asI3658
(lp3662
I4179
aI4682
asI3659
(lp3663
I4180
aI4683
asI3660
(lp3664
I4181
aI4684
asI3661
(lp3665
I4182
aI4685
asI3662
(lp3666
I4183
aI4686
asI3663
(lp3667
I4176
aI4687
asI3664
(lp3668
I4185
aI4688
asI3665
(lp3669
I4186
aI4689
asI3666
(lp3670
I4187
aI4690
asI3667
(lp3671
I4188
aI4691
asI3668
(lp3672
I4189
aI4692
asI3669
(lp3673
I4190
aI4693
asI3670
(lp3674
I4191
aI4694
asI3671
(lp3675
I4184
aI4695
asI3672
(lp3676
I4193
aI4696
asI3673
(lp3677
I4194
aI4697
asI3674
(lp3678
I4195
aI4698
asI3675
(lp3679
I4196
aI4699
asI3676
(lp3680
I4197
aI4700
asI3677
(lp3681
I4198
aI4701
asI3678
(lp3682
I4199
aI4702
asI3679
(lp3683
I4192
aI4703
asI3680
(lp3684
I4201
aI4704
asI3681
(lp3685
I4202
aI4705
asI3682
(lp3686
I4203
aI4706
asI3683
(lp3687
I4204
aI4707
asI3684
(lp3688
I4205
aI4708
asI3685
(lp3689
I4206
aI4709
asI3686
(lp3690
I4207
aI4710
asI3687
(lp3691
I4200
aI4711
asI3688
(lp3692
I4209
aI4712
asI3689
(lp3693
I4210
aI4713
asI3690
(lp3694
I4211
aI4714
asI3691
(lp3695
I4212
aI4715
asI3692
(lp3696
I4213
aI4716
asI3693
(lp3697
I4214
aI4717
asI3694
(lp3698
I4215
aI4718
asI3695
(lp3699
I4208
aI4719
asI3696
(lp3700
I4217
aI4720
asI3697
(lp3701
I4218
aI4721
asI3698
(lp3702
I4219
aI4722
asI3699
(lp3703
I4220
aI4723
asI3700
(lp3704
I4221
aI4724
asI3701
(lp3705
I4222
aI4725
asI3702
(lp3706
I4223
aI4726
asI3703
(lp3707
I4216
aI4727
asI3704
(lp3708
I4161
aI4728
asI3705
(lp3709
I4162
aI4729
asI3706
(lp3710
I4163
aI4730
asI3707
(lp3711
I4164
aI4731
asI3708
(lp3712
I4165
aI4732
asI3709
(lp3713
I4166
aI4733
asI3710
(lp3714
I4167
aI4734
asI3711
(lp3715
I4160
aI4735
asI3712
(lp3716
I4233
aI4736
asI3713
(lp3717
I4234
aI4737
asI3714
(lp3718
I4235
aI4738
asI3715
(lp3719
I4236
aI4739
asI3716
(lp3720
I4237
aI4740
asI3717
(lp3721
I4238
aI4741
asI3718
(lp3722
I4239
aI4742
asI3719
(lp3723
I4232
aI4743
asI3720
(lp3724
I4241
aI4744
asI3721
(lp3725
I4242
aI4745
asI3722
(lp3726
I4243
aI4746
asI3723
(lp3727
I4244
aI4747
asI3724
(lp3728
I4245
aI4748
asI3725
(lp3729
I4246
aI4749
asI3726
(lp3730
I4247
aI4750
asI3727
(lp3731
I4240
aI4751
asI3728
(lp3732
I4249
aI4752
asI3729
(lp3733
I4250
aI4753
asI3730
(lp3734
I4251
aI4754
asI3731
(lp3735
I4252
aI4755
asI3732
(lp3736
I4253
aI4756
asI3733
(lp3737
I4254
aI4757
asI3734
(lp3738
I4255
aI4758
asI3735
(lp3739
I4248
aI4759
asI3736
(lp3740
I4257
aI4760
asI3737
(lp3741
I4258
aI4761
asI3738
(lp3742
I4259
aI4762
asI3739
(lp3743
I4260
aI4763
asI3740
(lp3744
I4261
aI4764
asI3741
(lp3745
I4262
aI4765
asI3742
(lp3746
I4263
aI4766
asI3743
(lp3747
I4256
aI4767
asI3744
(lp3748
I4265
aI4768
asI3745
(lp3749
I4266
aI4769
asI3746
(lp3750
I4267
aI4770
asI3747
(lp3751
I4268
aI4771
asI3748
(lp3752
I4269
aI4772
asI3749
(lp3753
I4270
aI4773
asI3750
(lp3754
I4271
aI4774
asI3751
(lp3755
I4264
aI4775
asI3752
(lp3756
I4273
aI4776
asI3753
(lp3757
I4274
aI4777
asI3754
(lp3758
I4275
aI4778
asI3755
(lp3759
I4276
aI4779
asI3756
(lp3760
I4277
aI4780
asI3757
(lp3761
I4278
aI4781
asI3758
(lp3762
I4279
aI4782
asI3759
(lp3763
I4272
aI4783
asI3760
(lp3764
I4281
aI4784
asI3761
(lp3765
I4282
aI4785
asI3762
(lp3766
I4283
aI4786
asI3763
(lp3767
I4284
aI4787
asI3764
(lp3768
I4285
aI4788
asI3765
(lp3769
I4286
aI4789
asI3766
(lp3770
I4287
aI4790
asI3767
(lp3771
I4280
aI4791
asI3768
(lp3772
I4225
aI4792
asI3769
(lp3773
I4226
aI4793
asI3770
(lp3774
I4227
aI4794
asI3771
(lp3775
I4228
aI4795
asI3772
(lp3776
I4229
aI4796
asI3773
(lp3777
I4230
aI4797
asI3774
(lp3778
I4231
aI4798
asI3775
(lp3779
I4224
aI4799
asI3776
(lp3780
I4297
aI4800
asI3777
(lp3781
I4298
aI4801
asI3778
(lp3782
I4299
aI4802
asI3779
(lp3783
I4300
aI4803
asI3780
(lp3784
I4301
aI4804
asI3781
(lp3785
I4302
aI4805
asI3782
(lp3786
I4303
aI4806
asI3783
(lp3787
I4296
aI4807
asI3784
(lp3788
I4305
aI4808
asI3785
(lp3789
I4306
aI4809
asI3786
(lp3790
I4307
aI4810
asI3787
(lp3791
I4308
aI4811
asI3788
(lp3792
I4309
aI4812
asI3789
(lp3793
I4310
aI4813
asI3790
(lp3794
I4311
aI4814
asI3791
(lp3795
I4304
aI4815
asI3792
(lp3796
I4313
aI4816
asI3793
(lp3797
I4314
aI4817
asI3794
(lp3798
I4315
aI4818
asI3795
(lp3799
I4316
aI4819
asI3796
(lp3800
I4317
aI4820
asI3797
(lp3801
I4318
aI4821
asI3798
(lp3802
I4319
aI4822
asI3799
(lp3803
I4312
aI4823
asI3800
(lp3804
I4321
aI4824
asI3801
(lp3805
I4322
aI4825
asI3802
(lp3806
I4323
aI4826
asI3803
(lp3807
I4324
aI4827
asI3804
(lp3808
I4325
aI4828
asI3805
(lp3809
I4326
aI4829
asI3806
(lp3810
I4327
aI4830
asI3807
(lp3811
I4320
aI4831
asI3808
(lp3812
I4329
aI4832
asI3809
(lp3813
I4330
aI4833
asI3810
(lp3814
I4331
aI4834
asI3811
(lp3815
I4332
aI4835
asI3812
(lp3816
I4333
aI4836
asI3813
(lp3817
I4334
aI4837
asI3814
(lp3818
I4335
aI4838
asI3815
(lp3819
I4328
aI4839
asI3816
(lp3820
I4337
aI4840
asI3817
(lp3821
I4338
aI4841
asI3818
(lp3822
I4339
aI4842
asI3819
(lp3823
I4340
aI4843
asI3820
(lp3824
I4341
aI4844
asI3821
(lp3825
I4342
aI4845
asI3822
(lp3826
I4343
aI4846
asI3823
(lp3827
I4336
aI4847
asI3824
(lp3828
I4345
aI4848
asI3825
(lp3829
I4346
aI4849
asI3826
(lp3830
I4347
aI4850
asI3827
(lp3831
I4348
aI4851
asI3828
(lp3832
I4349
aI4852
asI3829
(lp3833
I4350
aI4853
asI3830
(lp3834
I4351
aI4854
asI3831
(lp3835
I4344
aI4855
asI3832
(lp3836
I4289
aI4856
asI3833
(lp3837
I4290
aI4857
asI3834
(lp3838
I4291
aI4858
asI3835
(lp3839
I4292
aI4859
asI3836
(lp3840
I4293
aI4860
asI3837
(lp3841
I4294
aI4861
asI3838
(lp3842
I4295
aI4862
asI3839
(lp3843
I4288
aI4863
asI3840
(lp3844
I4361
aI4864
asI3841
(lp3845
I4362
aI4865
asI3842
(lp3846
I4363
aI4866
asI3843
(lp3847
I4364
aI4867
asI3844
(lp3848
I4365
aI4868
asI3845
(lp3849
I4366
aI4869
asI3846
(lp3850
I4367
aI4870
asI3847
(lp3851
I4360
aI4871
asI3848
(lp3852
I4369
aI4872
asI3849
(lp3853
I4370
aI4873
asI3850
(lp3854
I4371
aI4874
asI3851
(lp3855
I4372
aI4875
asI3852
(lp3856
I4373
aI4876
asI3853
(lp3857
I4374
aI4877
asI3854
(lp3858
I4375
aI4878
asI3855
(lp3859
I4368
aI4879
asI3856
(lp3860
I4377
aI4880
asI3857
(lp3861
I4378
aI4881
asI3858
(lp3862
I4379
aI4882
asI3859
(lp3863
I4380
aI4883
asI3860
(lp3864
I4381
aI4884
asI3861
(lp3865
I4382
aI4885
asI3862
(lp3866
I4383
aI4886
asI3863
(lp3867
I4376
aI4887
asI3864
(lp3868
I4385
aI4888
asI3865
(lp3869
I4386
aI4889
asI3866
(lp3870
I4387
aI4890
asI3867
(lp3871
I4388
aI4891
asI3868
(lp3872
I4389
aI4892
asI3869
(lp3873
I4390
aI4893
asI3870
(lp3874
I4391
aI4894
asI3871
(lp3875
I4384
aI4895
asI3872
(lp3876
I4393
aI4896
asI3873
(lp3877
I4394
aI4897
asI3874
(lp3878
I4395
aI4898
asI3875
(lp3879
I4396
aI4899
asI3876
(lp3880
I4397
aI4900
asI3877
(lp3881
I4398
aI4901
asI3878
(lp3882
I4399
aI4902
asI3879
(lp3883
I4392
aI4903
asI3880
(lp3884
I4401
aI4904
asI3881
(lp3885
I4402
aI4905
asI3882
(lp3886
I4403
aI4906
asI3883
(lp3887
I4404
aI4907
asI3884
(lp3888
I4405
aI4908
asI3885
(lp3889
I4406
aI4909
asI3886
(lp3890
I4407
aI4910
asI3887
(lp3891
I4400
aI4911
asI3888
(lp3892
I4409
aI4912
asI3889
(lp3893
I4410
aI4913
asI3890
(lp3894
I4411
aI4914
asI3891
(lp3895
I4412
aI4915
asI3892
(lp3896
I4413
aI4916
asI3893
(lp3897
I4414
aI4917
asI3894
(lp3898
I4415
aI4918
asI3895
(lp3899
I4408
aI4919
asI3896
(lp3900
I4353
aI4920
asI3897
(lp3901
I4354
aI4921
asI3898
(lp3902
I4355
aI4922
asI3899
(lp3903
I4356
aI4923
asI3900
(lp3904
I4357
aI4924
asI3901
(lp3905
I4358
aI4925
asI3902
(lp3906
I4359
aI4926
asI3903
(lp3907
I4352
aI4927
asI3904
(lp3908
I4425
aI4928
asI3905
(lp3909
I4426
aI4929
asI3906
(lp3910
I4427
aI4930
asI3907
(lp3911
I4428
aI4931
asI3908
(lp3912
I4429
aI4932
asI3909
(lp3913
I4430
aI4933
asI3910
(lp3914
I4431
aI4934
asI3911
(lp3915
I4424
aI4935
asI3912
(lp3916
I4433
aI4936
asI3913
(lp3917
I4434
aI4937
asI3914
(lp3918
I4435
aI4938
asI3915
(lp3919
I4436
aI4939
asI3916
(lp3920
I4437
aI4940
asI3917
(lp3921
I4438
aI4941
asI3918
(lp3922
I4439
aI4942
asI3919
(lp3923
I4432
aI4943
asI3920
(lp3924
I4441
aI4944
asI3921
(lp3925
I4442
aI4945
asI3922
(lp3926
I4443
aI4946
asI3923
(lp3927
I4444
aI4947
asI3924
(lp3928
I4445
aI4948
asI3925
(lp3929
I4446
aI4949
asI3926
(lp3930
I4447
aI4950
asI3927
(lp3931
I4440
aI4951
asI3928
(lp3932
I4449
aI4952
asI3929
(lp3933
I4450
aI4953
asI3930
(lp3934
I4451
aI4954
asI3931
(lp3935
I4452
aI4955
asI3932
(lp3936
I4453
aI4956
asI3933
(lp3937
I4454
aI4957
asI3934
(lp3938
I4455
aI4958
asI3935
(lp3939
I4448
aI4959
asI3936
(lp3940
I4457
aI4960
asI3937
(lp3941
I4458
aI4961
asI3938
(lp3942
I4459
aI4962
asI3939
(lp3943
I4460
aI4963
asI3940
(lp3944
I4461
aI4964
asI3941
(lp3945
I4462
aI4965
asI3942
(lp3946
I4463
aI4966
asI3943
(lp3947
I4456
aI4967
asI3944
(lp3948
I4465
aI4968
asI3945
(lp3949
I4466
aI4969
asI3946
(lp3950
I4467
aI4970
asI3947
(lp3951
I4468
aI4971
asI3948
(lp3952
I4469
aI4972
asI3949
(lp3953
I4470
aI4973
asI3950
(lp3954
I4471
aI4974
asI3951
(lp3955
I4464
aI4975
asI3952
(lp3956
I4473
aI4976
asI3953
(lp3957
I4474
aI4977
asI3954
(lp3958
I4475
aI4978
asI3955
(lp3959
I4476
aI4979
asI3956
(lp3960
I4477
aI4980
asI3957
(lp3961
I4478
aI4981
asI3958
(lp3962
I4479
aI4982
asI3959
(lp3963
I4472
aI4983
asI3960
(lp3964
I4417
aI4984
asI3961
(lp3965
I4418
aI4985
asI3962
(lp3966
I4419
aI4986
asI3963
(lp3967
I4420
aI4987
asI3964
(lp3968
I4421
aI4988
asI3965
(lp3969
I4422
aI4989
asI3966
(lp3970
I4423
aI4990
asI3967
(lp3971
I4416
aI4991
asI3968
(lp3972
I4489
aI4992
asI3969
(lp3973
I4490
aI4993
asI3970
(lp3974
I4491
aI4994
asI3971
(lp3975
I4492
aI4995
asI3972
(lp3976
I4493
aI4996
asI3973
(lp3977
I4494
aI4997
asI3974
(lp3978
I4495
aI4998
asI3975
(lp3979
I4488
aI4999
asI3976
(lp3980
I4497
aI5000
asI3977
(lp3981
I4498
aI5001
asI3978
(lp3982
I4499
aI5002
asI3979
(lp3983
I4500
aI5003
asI3980
(lp3984
I4501
aI5004
asI3981
(lp3985
I4502
aI5005
asI3982
(lp3986
I4503
aI5006
asI3983
(lp3987
I4496
aI5007
asI3984
(lp3988
I4505
aI5008
asI3985
(lp3989
I4506
aI5009
asI3986
(lp3990
I4507
aI5010
asI3987
(lp3991
I4508
aI5011
asI3988
(lp3992
I4509
aI5012
asI3989
(lp3993
I4510
aI5013
asI3990
(lp3994
I4511
aI5014
asI3991
(lp3995
I4504
aI5015
asI3992
(lp3996
I4513
aI5016
asI3993
(lp3997
I4514
aI5017
asI3994
(lp3998
I4515
aI5018
asI3995
(lp3999
I4516
aI5019
asI3996
(lp4000
I4517
aI5020
asI3997
(lp4001
I4518
aI5021
asI3998
(lp4002
I4519
aI5022
asI3999
(lp4003
I4512
aI5023
asI4000
(lp4004
I4521
aI5024
asI4001
(lp4005
I4522
aI5025
asI4002
(lp4006
I4523
aI5026
asI4003
(lp4007
I4524
aI5027
asI4004
(lp4008
I4525
aI5028
asI4005
(lp4009
I4526
aI5029
asI4006
(lp4010
I4527
aI5030
asI4007
(lp4011
I4520
aI5031
asI4008
(lp4012
I4529
aI5032
asI4009
(lp4013
I4530
aI5033
asI4010
(lp4014
I4531
aI5034
asI4011
(lp4015
I4532
aI5035
asI4012
(lp4016
I4533
aI5036
asI4013
(lp4017
I4534
aI5037
asI4014
(lp4018
I4535
aI5038
asI4015
(lp4019
I4528
aI5039
asI4016
(lp4020
I4537
aI5040
asI4017
(lp4021
I4538
aI5041
asI4018
(lp4022
I4539
aI5042
asI4019
(lp4023
I4540
aI5043
asI4020
(lp4024
I4541
aI5044
asI4021
(lp4025
I4542
aI5045
asI4022
(lp4026
I4543
aI5046
asI4023
(lp4027
I4536
aI5047
asI4024
(lp4028
I4481
aI5048
asI4025
(lp4029
I4482
aI5049
asI4026
(lp4030
I4483
aI5050
asI4027
(lp4031
I4484
aI5051
asI4028
(lp4032
I4485
aI5052
asI4029
(lp4033
I4486
aI5053
asI4030
(lp4034
I4487
aI5054
asI4031
(lp4035
I4480
aI5055
asI4032
(lp4036
I4553
aI5056
asI4033
(lp4037
I4554
aI5057
asI4034
(lp4038
I4555
aI5058
asI4035
(lp4039
I4556
aI5059
asI4036
(lp4040
I4557
aI5060
asI4037
(lp4041
I4558
aI5061
asI4038
(lp4042
I4559
aI5062
asI4039
(lp4043
I4552
aI5063
asI4040
(lp4044
I4561
aI5064
asI4041
(lp4045
I4562
aI5065
asI4042
(lp4046
I4563
aI5066
asI4043
(lp4047
I4564
aI5067
asI4044
(lp4048
I4565
aI5068
asI4045
(lp4049
I4566
aI5069
asI4046
(lp4050
I4567
aI5070
asI4047
(lp4051
I4560
aI5071
asI4048
(lp4052
I4569
aI5072
asI4049
(lp4053
I4570
aI5073
asI4050
(lp4054
I4571
aI5074
asI4051
(lp4055
I4572
aI5075
asI4052
(lp4056
I4573
aI5076
asI4053
(lp4057
I4574
aI5077
asI4054
(lp4058
I4575
aI5078
asI4055
(lp4059
I4568
aI5079
asI4056
(lp4060
I4577
aI5080
asI4057
(lp4061
I4578
aI5081
asI4058
(lp4062
I4579
aI5082
asI4059
(lp4063
I4580
aI5083
asI4060
(lp4064
I4581
aI5084
asI4061
(lp4065
I4582
aI5085
asI4062
(lp4066
I4583
aI5086
asI4063
(lp4067
I4576
aI5087
asI4064
(lp4068
I4585
aI5088
asI4065
(lp4069
I4586
aI5089
asI4066
(lp4070
I4587
aI5090
asI4067
(lp4071
I4588
aI5091
asI4068
(lp4072
I4589
aI5092
asI4069
(lp4073
I4590
aI5093
asI4070
(lp4074
I4591
aI5094
asI4071
(lp4075
I4584
aI5095
asI4072
(lp4076
I4593
aI5096
asI4073
(lp4077
I4594
aI5097
asI4074
(lp4078
I4595
aI5098
asI4075
(lp4079
I4596
aI5099
asI4076
(lp4080
I4597
aI5100
asI4077
(lp4081
I4598
aI5101
asI4078
(lp4082
I4599
aI5102
asI4079
(lp4083
I4592
aI5103
asI4080
(lp4084
I4601
aI5104
asI4081
(lp4085
I4602
aI5105
asI4082
(lp4086
I4603
aI5106
asI4083
(lp4087
I4604
aI5107
asI4084
(lp4088
I4605
aI5108
asI4085
(lp4089
I4606
aI5109
asI4086
(lp4090
I4607
aI5110
asI4087
(lp4091
I4600
aI5111
asI4088
(lp4092
I4545
aI5112
asI4089
(lp4093
I4546
aI5113
asI4090
(lp4094
I4547
aI5114
asI4091
(lp4095
I4548
aI5115
asI4092
(lp4096
I4549
aI5116
asI4093
(lp4097
I4550
aI5117
asI4094
(lp4098
I4551
aI5118
asI4095
(lp4099
I4544
aI5119
as.