ccollections
defaultdict
p0
(c__builtin__
list
p1
tp2
Rp3
I360
(lp4
I0
aI73
asI361
(lp5
I1
aI74
asI362
(lp6
I2
aI75
asI363
(lp7
I4
aI77
asI364
(lp8
I5
aI78
asI365
(lp9
I6
aI79
asI366
(lp10
I8
aI81
asI367
(lp11
I9
aI82
asI368
(lp12
I10
aI83
asI369
(lp13
I12
aI85
asI370
(lp14
I13
aI86
asI371
(lp15
I14
aI87
asI372
(lp16
I16
aI89
asI373
(lp17
I17
aI90
asI374
(lp18
I18
aI91
asI375
(lp19
I20
aI93
asI376
(lp20
I21
aI94
asI377
(lp21
I22
aI95
asI378
(lp22
I24
aI97
asI379
(lp23
I25
aI98
asI380
(lp24
I26
aI99
asI381
(lp25
I28
aI101
asI382
(lp26
I29
aI102
asI383
(lp27
I30
aI103
asI384
(lp28
I32
aI105
asI385
(lp29
I33
aI106
asI386
(lp30
I34
aI107
asI387
(lp31
I37
aI108
asI388
(lp32
I38
aI109
asI389
(lp33
I39
aI110
asI390
(lp34
I41
aI112
asI391
(lp35
I42
aI113
asI392
(lp36
I43
aI114
asI393
(lp37
I45
aI116
asI394
(lp38
I46
aI117
asI395
(lp39
I47
aI118
asI396
(lp40
I49
aI120
asI397
(lp41
I50
aI121
asI398
(lp42
I51
aI122
asI399
(lp43
I53
aI124
asI400
(lp44
I54
aI125
asI401
(lp45
I55
aI126
asI402
(lp46
I57
aI128
asI403
(lp47
I58
aI129
asI404
(lp48
I59
aI130
asI405
(lp49
I61
aI132
asI406
(lp50
I62
aI133
asI407
(lp51
I63
aI134
asI408
(lp52
I65
aI136
asI409
(lp53
I66
aI137
asI410
(lp54
I67
aI138
asI411
(lp55
I69
aI140
asI412
(lp56
I70
aI141
asI413
(lp57
I71
aI142
asI414
(lp58
I4
aI145
asI415
(lp59
I5
aI146
asI416
(lp60
I6
aI147
asI417
(lp61
I8
aI149
asI418
(lp62
I9
aI150
asI419
(lp63
I10
aI151
asI420
(lp64
I16
aI157
asI421
(lp65
I17
aI158
asI422
(lp66
I18
aI159
asI423
(lp67
I20
aI161
asI424
(lp68
I21
aI162
asI425
(lp69
I22
aI163
asI426
(lp70
I28
aI169
asI427
(lp71
I29
aI170
asI428
(lp72
I30
aI171
asI429
(lp73
I32
aI173
asI430
(lp74
I33
aI174
asI431
(lp75
I34
aI175
asI432
(lp76
I37
aI184
asI433
(lp77
I38
aI185
asI434
(lp78
I39
aI186
asI435
(lp79
I41
aI188
asI436
(lp80
I42
aI189
asI437
(lp81
I43
aI190
asI438
(lp82
I49
aI196
asI439
(lp83
I50
aI197
asI440
(lp84
I51
aI198
asI441
(lp85
I53
aI200
asI442
(lp86
I54
aI201
asI443
(lp87
I55
aI202
asI444
(lp88
I61
aI208
asI445
(lp89
I62
aI209
asI446
(lp90
I63
aI210
asI447
(lp91
I65
aI212
asI448
(lp92
I66
aI213
asI449
(lp93
I67
aI214
asI450
(lp94
I48
aI216
asI451
(lp95
I49
aI217
asI452
(lp96
I50
aI218
asI453
(lp97
I51
aI219
asI454
(lp98
I52
aI220
asI455
(lp99
I53
aI221
asI456
(lp100
I54
aI222
asI457
(lp101
I55
aI223
asI458
(lp102
I56
aI224
asI459
(lp103
I57
aI225
asI460
(lp104
I58
aI226
asI461
(lp105
I59
aI227
asI462
(lp106
I60
aI228
asI463
(lp107
I61
aI229
asI464
(lp108
I62
aI230
asI465
(lp109
I63
aI231
asI466
(lp110
I64
aI232
asI467
(lp111
I65
aI233
asI468
(lp112
I66
aI234
asI469
(lp113
I67
aI235
asI470
(lp114
I68
aI236
asI471
(lp115
I69
aI237
asI472
(lp116
I70
aI238
asI473
(lp117
I71
aI239
asI474
(lp118
I0
aI264
asI475
(lp119
I1
aI265
asI476
(lp120
I2
aI266
asI477
(lp121
I3
aI267
asI478
(lp122
I4
aI268
asI479
(lp123
I5
aI269
asI480
(lp124
I6
aI270
asI481
(lp125
I7
aI271
asI482
(lp126
I8
aI272
asI483
(lp127
I9
aI273
asI484
(lp128
I10
aI274
asI485
(lp129
I11
aI275
asI486
(lp130
I12
aI276
asI487
(lp131
I13
aI277
asI488
(lp132
I14
aI278
asI489
(lp133
I15
aI279
asI490
(lp134
I16
aI280
asI491
(lp135
I17
aI281
asI492
(lp136
I18
aI282
asI493
(lp137
I19
aI283
asI494
(lp138
I20
aI284
asI495
(lp139
I21
aI285
asI496
(lp140
I22
aI286
asI497
(lp141
I23
aI287
asI498
(lp142
I36
aI288
asI499
(lp143
I37
aI289
asI500
(lp144
I38
aI290
asI501
(lp145
I39
aI291
asI502
(lp146
I40
aI292
asI503
(lp147
I41
aI293
asI504
(lp148
I42
aI294
asI505
(lp149
I43
aI295
asI506
(lp150
I44
aI296
asI507
(lp151
I45
aI297
asI508
(lp152
I46
aI298
asI509
(lp153
I47
aI299
asI510
(lp154
I48
aI300
asI511
(lp155
I49
aI301
asI512
(lp156
I50
aI302
asI513
(lp157
I51
aI303
asI514
(lp158
I52
aI304
asI515
(lp159
I53
aI305
asI516
(lp160
I54
aI306
asI517
(lp161
I55
aI307
asI518
(lp162
I56
aI308
asI519
(lp163
I57
aI309
asI520
(lp164
I58
aI310
asI521
(lp165
I59
aI311
asI522
(lp166
I60
aI312
asI523
(lp167
I61
aI313
asI524
(lp168
I62
aI314
asI525
(lp169
I63
aI315
asI526
(lp170
I64
aI316
asI527
(lp171
I65
aI317
asI528
(lp172
I66
aI318
asI529
(lp173
I67
aI319
asI530
(lp174
I68
aI320
asI531
(lp175
I69
aI321
asI532
(lp176
I70
aI322
asI533
(lp177
I71
aI323
asI534
(lp178
I0
aI324
asI535
(lp179
I1
aI325
asI536
(lp180
I2
aI326
asI537
(lp181
I3
aI327
asI538
(lp182
I4
aI328
asI539
(lp183
I5
aI329
asI540
(lp184
I6
aI330
asI541
(lp185
I7
aI331
asI542
(lp186
I8
aI332
asI543
(lp187
I9
aI333
asI544
(lp188
I10
aI334
asI545
(lp189
I11
aI335
asI546
(lp190
I12
aI336
asI547
(lp191
I13
aI337
asI548
(lp192
I14
aI338
asI549
(lp193
I15
aI339
asI550
(lp194
I16
aI340
asI551
(lp195
I17
aI341
asI552
(lp196
I18
aI342
asI553
(lp197
I19
aI343
asI554
(lp198
I20
aI344
asI555
(lp199
I21
aI345
asI556
(lp200
I22
aI346
asI557
(lp201
I23
aI347
asI558
(lp202
I24
aI348
asI559
(lp203
I25
aI349
asI560
(lp204
I26
aI350
asI561
(lp205
I27
aI351
asI562
(lp206
I28
aI352
asI563
(lp207
I29
aI353
asI564
(lp208
I30
aI354
asI565
(lp209
I31
aI355
asI566
(lp210
I32
aI356
asI567
(lp211
I33
aI357
asI568
(lp212
I34
aI358
asI569
(lp213
I35
aI359
asI570
(lp214
I0
aI73
asI571
(lp215
I1
aI74
asI572
(lp216
I2
aI75
asI573
(lp217
I3
asI574
(lp218
I4
aI77
asI575
(lp219
I5
aI78
asI576
(lp220
I6
aI79
asI577
(lp221
I7
asI578
(lp222
I8
aI81
asI579
(lp223
I9
aI82
asI580
(lp224
I10
aI83
asI581
(lp225
I11
asI582
(lp226
I12
aI85
asI583
(lp227
I13
aI86
asI584
(lp228
I14
aI87
asI585
(lp229
I15
asI586
(lp230
I16
aI89
asI587
(lp231
I17
aI90
asI588
(lp232
I18
aI91
asI589
(lp233
I19
asI590
(lp234
I20
aI93
asI591
(lp235
I21
aI94
asI592
(lp236
I22
aI95
asI593
(lp237
I23
asI594
(lp238
I24
aI97
asI595
(lp239
I25
aI98
asI596
(lp240
I26
aI99
asI597
(lp241
I27
asI598
(lp242
I28
aI101
asI599
(lp243
I29
aI102
asI600
(lp244
I30
aI103
asI601
(lp245
I31
asI602
(lp246
I32
aI105
asI603
(lp247
I33
aI106
asI604
(lp248
I34
aI107
asI605
(lp249
I35
asI606
(lp250
I36
asI607
(lp251
I37
aI108
asI608
(lp252
I38
aI109
asI609
(lp253
I39
aI110
asI610
(lp254
I40
asI611
(lp255
I41
aI112
asI612
(lp256
I42
aI113
asI613
(lp257
I43
aI114
asI614
(lp258
I44
asI615
(lp259
I45
aI116
asI616
(lp260
I46
aI117
asI617
(lp261
I47
aI118
asI618
(lp262
I48
asI619
(lp263
I49
aI120
asI620
(lp264
I50
aI121
asI621
(lp265
I51
aI122
asI622
(lp266
I52
asI623
(lp267
I53
aI124
asI624
(lp268
I54
aI125
asI625
(lp269
I55
aI126
asI626
(lp270
I56
asI627
(lp271
I57
aI128
asI628
(lp272
I58
aI129
asI629
(lp273
I59
aI130
asI630
(lp274
I60
asI631
(lp275
I61
aI132
asI632
(lp276
I62
aI133
asI633
(lp277
I63
aI134
asI634
(lp278
I64
asI635
(lp279
I65
aI136
asI636
(lp280
I66
aI137
asI637
(lp281
I67
aI138
asI638
(lp282
I68
asI639
(lp283
I69
aI140
asI640
(lp284
I70
aI141
asI641
(lp285
I71
aI142
asI642
(lp286
I0
aI153
asI643
(lp287
I1
aI154
asI644
(lp288
I2
aI155
asI645
(lp289
I3
asI646
(lp290
I4
aI145
asI647
(lp291
I5
aI146
asI648
(lp292
I6
aI147
asI649
(lp293
I7
asI650
(lp294
I8
aI149
asI651
(lp295
I9
aI150
asI652
(lp296
I10
aI151
asI653
(lp297
I11
asI654
(lp298
I12
aI165
asI655
(lp299
I13
aI166
asI656
(lp300
I14
aI167
asI657
(lp301
I15
asI658
(lp302
I16
aI157
asI659
(lp303
I17
aI158
asI660
(lp304
I18
aI159
asI661
(lp305
I19
asI662
(lp306
I20
aI161
asI663
(lp307
I21
aI162
asI664
(lp308
I22
aI163
asI665
(lp309
I23
asI666
(lp310
I24
aI177
asI667
(lp311
I25
aI178
asI668
(lp312
I26
aI179
asI669
(lp313
I27
asI670
(lp314
I28
aI169
asI671
(lp315
I29
aI170
asI672
(lp316
I30
aI171
asI673
(lp317
I31
asI674
(lp318
I32
aI173
asI675
(lp319
I33
aI174
asI676
(lp320
I34
aI175
asI677
(lp321
I35
asI678
(lp322
I36
asI679
(lp323
I37
aI184
asI680
(lp324
I38
aI185
asI681
(lp325
I39
aI186
asI682
(lp326
I40
asI683
(lp327
I41
aI188
asI684
(lp328
I42
aI189
asI685
(lp329
I43
aI190
asI686
(lp330
I44
asI687
(lp331
I45
aI180
asI688
(lp332
I46
aI181
asI689
(lp333
I47
aI182
asI690
(lp334
I48
asI691
(lp335
I49
aI196
asI692
(lp336
I50
aI197
asI693
(lp337
I51
aI198
asI694
(lp338
I52
asI695
(lp339
I53
aI200
asI696
(lp340
I54
aI201
asI697
(lp341
I55
aI202
asI698
(lp342
I56
asI699
(lp343
I57
aI192
asI700
(lp344
I58
aI193
asI701
(lp345
I59
aI194
asI702
(lp346
I60
asI703
(lp347
I61
aI208
asI704
(lp348
I62
aI209
asI705
(lp349
I63
aI210
asI706
(lp350
I64
asI707
(lp351
I65
aI212
asI708
(lp352
I66
aI213
asI709
(lp353
I67
aI214
asI710
(lp354
I68
asI711
(lp355
I69
aI204
asI712
(lp356
I70
aI205
asI713
(lp357
I71
aI206
asI714
(lp358
I36
aI240
asI715
(lp359
I37
aI241
asI716
(lp360
I38
aI242
asI717
(lp361
I39
aI243
asI718
(lp362
I40
aI244
asI719
(lp363
I41
aI245
asI720
(lp364
I42
aI246
asI721
(lp365
I43
aI247
asI722
(lp366
I44
aI248
asI723
(lp367
I45
aI249
asI724
(lp368
I46
aI250
asI725
(lp369
I47
aI251
asI726
(lp370
I48
aI216
asI727
(lp371
I49
aI217
asI728
(lp372
I50
aI218
asI729
(lp373
I51
aI219
asI730
(lp374
I52
aI220
asI731
(lp375
I53
aI221
asI732
(lp376
I54
aI222
asI733
(lp377
I55
aI223
asI734
(lp378
I56
aI224
asI735
(lp379
I57
aI225
asI736
(lp380
I58
aI226
asI737
(lp381
I59
aI227
asI738
(lp382
I60
aI228
asI739
(lp383
I61
aI229
asI740
(lp384
I62
aI230
asI741
(lp385
I63
aI231
asI742
(lp386
I64
aI232
asI743
(lp387
I65
aI233
asI744
(lp388
I66
aI234
asI745
(lp389
I67
aI235
asI746
(lp390
I68
aI236
asI747
(lp391
I69
aI237
asI748
(lp392
I70
aI238
asI749
(lp393
I71
aI239
asI750
(lp394
I0
aI264
asI751
(lp395
I1
aI265
asI752
(lp396
I2
aI266
asI753
(lp397
I3
aI267
asI754
(lp398
I4
aI268
asI755
(lp399
I5
aI269
asI756
(lp400
I6
aI270
asI757
(lp401
I7
aI271
asI758
(lp402
I8
aI272
asI759
(lp403
I9
aI273
asI760
(lp404
I10
aI274
asI761
(lp405
I11
aI275
asI762
(lp406
I12
aI276
asI763
(lp407
I13
aI277
asI764
(lp408
I14
aI278
asI765
(lp409
I15
aI279
asI766
(lp410
I16
aI280
asI767
(lp411
I17
aI281
asI768
(lp412
I18
aI282
asI769
(lp413
I19
aI283
asI770
(lp414
I20
aI284
asI771
(lp415
I21
aI285
asI772
(lp416
I22
aI286
asI773
(lp417
I23
aI287
asI774
(lp418
I24
aI252
asI775
(lp419
I25
aI253
asI776
(lp420
I26
aI254
asI777
(lp421
I27
aI255
asI778
(lp422
I28
aI256
asI779
(lp423
I29
aI257
asI780
(lp424
I30
aI258
asI781
(lp425
I31
aI259
asI782
(lp426
I32
aI260
asI783
(lp427
I33
aI261
asI784
(lp428
I34
aI262
asI785
(lp429
I35
aI263
asI786
(lp430
I36
aI288
asI787
(lp431
I37
aI289
asI788
(lp432
I38
aI290
asI789
(lp433
I39
aI291
asI790
(lp434
I40
aI292
asI791
(lp435
I41
aI293
asI792
(lp436
I42
aI294
asI793
(lp437
I43
aI295
asI794
(lp438
I44
aI296
asI795
(lp439
I45
aI297
asI796
(lp440
I46
aI298
asI797
(lp441
I47
aI299
asI798
(lp442
I48
aI300
asI799
(lp443
I49
aI301
asI800
(lp444
I50
aI302
asI801
(lp445
I51
aI303
asI802
(lp446
I52
aI304
asI803
(lp447
I53
aI305
asI804
(lp448
I54
aI306
asI805
(lp449
I55
aI307
asI806
(lp450
I56
aI308
asI807
(lp451
I57
aI309
asI808
(lp452
I58
aI310
asI809
(lp453
I59
aI311
asI810
(lp454
I60
aI312
asI811
(lp455
I61
aI313
asI812
(lp456
I62
aI314
asI813
(lp457
I63
aI315
asI814
(lp458
I64
aI316
asI815
(lp459
I65
aI317
asI816
(lp460
I66
aI318
asI817
(lp461
I67
aI319
asI818
(lp462
I68
aI320
asI819
(lp463
I69
aI321
asI820
(lp464
I70
aI322
asI821
(lp465
I71
aI323
asI822
(lp466
I0
aI324
asI823
(lp467
I1
aI325
asI824
(lp468
I2
aI326
asI825
(lp469
I3
aI327
asI826
(lp470
I4
aI328
asI827
(lp471
I5
aI329
asI828
(lp472
I6
aI330
asI829
(lp473
I7
aI331
asI830
(lp474
I8
aI332
asI831
(lp475
I9
aI333
asI832
(lp476
I10
aI334
asI833
(lp477
I11
aI335
asI834
(lp478
I12
aI336
asI835
(lp479
I13
aI337
asI836
(lp480
I14
aI338
asI837
(lp481
I15
aI339
asI838
(lp482
I16
aI340
asI839
(lp483
I17
aI341
asI840
(lp484
I18
aI342
asI841
(lp485
I19
aI343
asI842
(lp486
I20
aI344
asI843
(lp487
I21
aI345
asI844
(lp488
I22
aI346
asI845
(lp489
I23
aI347
asI846
(lp490
I24
aI348
asI847
(lp491
I25
aI349
asI848
(lp492
I26
aI350
asI849
(lp493
I27
aI351
asI850
(lp494
I28
aI352
asI851
(lp495
I29
aI353
asI852
(lp496
I30
aI354
asI853
(lp497
I31
aI355
asI854
(lp498
I32
aI356
asI855
(lp499
I33
aI357
asI856
(lp500
I34
aI358
asI857
(lp501
I35
aI359
asI858
(lp502
I72
aI144
asI859
(lp503
I73
aI145
asI860
(lp504
I74
aI146
asI861
(lp505
I75
aI147
asI862
(lp506
I76
aI148
asI863
(lp507
I77
aI149
asI864
(lp508
I78
aI150
asI865
(lp509
I79
aI151
asI866
(lp510
I80
aI152
asI867
(lp511
I81
aI153
asI868
(lp512
I82
aI154
asI869
(lp513
I83
aI155
asI870
(lp514
I84
aI156
asI871
(lp515
I85
aI157
asI872
(lp516
I86
aI158
asI873
(lp517
I87
aI159
asI874
(lp518
I88
aI160
asI875
(lp519
I89
aI161
asI876
(lp520
I90
aI162
asI877
(lp521
I91
aI163
asI878
(lp522
I92
aI164
asI879
(lp523
I93
aI165
asI880
(lp524
I94
aI166
asI881
(lp525
I95
aI167
asI882
(lp526
I96
aI168
asI883
(lp527
I97
aI169
asI884
(lp528
I98
aI170
asI885
(lp529
I99
aI171
asI886
(lp530
I100
aI172
asI887
(lp531
I101
aI173
asI888
(lp532
I102
aI174
asI889
(lp533
I103
aI175
asI890
(lp534
I104
aI176
asI891
(lp535
I105
aI177
asI892
(lp536
I106
aI178
asI893
(lp537
I107
aI179
asI894
(lp538
I108
aI180
asI895
(lp539
I109
aI181
asI896
(lp540
I110
aI182
asI897
(lp541
I111
aI183
asI898
(lp542
I112
aI184
asI899
(lp543
I113
aI185
asI900
(lp544
I114
aI186
asI901
(lp545
I115
aI187
asI902
(lp546
I116
aI188
asI903
(lp547
I117
aI189
asI904
(lp548
I118
aI190
asI905
(lp549
I119
aI191
asI906
(lp550
I120
aI192
asI907
(lp551
I121
aI193
asI908
(lp552
I122
aI194
asI909
(lp553
I123
aI195
asI910
(lp554
I124
aI196
asI911
(lp555
I125
aI197
asI912
(lp556
I126
aI198
asI913
(lp557
I127
aI199
asI914
(lp558
I128
aI200
asI915
(lp559
I129
aI201
asI916
(lp560
I130
aI202
asI917
(lp561
I131
aI203
asI918
(lp562
I132
aI204
asI919
(lp563
I133
aI205
asI920
(lp564
I134
aI206
asI921
(lp565
I135
aI207
asI922
(lp566
I136
aI208
asI923
(lp567
I137
aI209
asI924
(lp568
I138
aI210
asI925
(lp569
I139
aI211
asI926
(lp570
I140
aI212
asI927
(lp571
I141
aI213
asI928
(lp572
I142
aI214
asI929
(lp573
I143
aI215
asI930
(lp574
I72
aI144
asI931
(lp575
I73
aI145
asI932
(lp576
I74
aI146
asI933
(lp577
I75
aI147
asI934
(lp578
I76
aI148
asI935
(lp579
I77
aI149
asI936
(lp580
I78
aI150
asI937
(lp581
I79
aI151
asI938
(lp582
I80
aI152
asI939
(lp583
I81
aI153
asI940
(lp584
I82
aI154
asI941
(lp585
I83
aI155
asI942
(lp586
I84
aI156
asI943
(lp587
I85
aI157
asI944
(lp588
I86
aI158
asI945
(lp589
I87
aI159
asI946
(lp590
I88
aI160
asI947
(lp591
I89
aI161
asI948
(lp592
I90
aI162
asI949
(lp593
I91
aI163
asI950
(lp594
I92
aI164
asI951
(lp595
I93
aI165
asI952
(lp596
I94
aI166
asI953
(lp597
I95
aI167
asI954
(lp598
I96
aI168
asI955
(lp599
I97
aI169
asI956
(lp600
I98
aI170
asI957
(lp601
I99
aI171
asI958
(lp602
I100
aI172
asI959
(lp603
I101
aI173
asI960
(lp604
I102
aI174
asI961
(lp605
I103
aI175
asI962
(lp606
I104
aI176
asI963
(lp607
I105
aI177
asI964
(lp608
I106
aI178
asI965
(lp609
I107
aI179
asI966
(lp610
I108
aI180
asI967
(lp611
I109
aI181
asI968
(lp612
I110
aI182
asI969
(lp613
I111
aI183
asI970
(lp614
I112
aI184
asI971
(lp615
I113
aI185
asI972
(lp616
I114
aI186
asI973
(lp617
I115
aI187
asI974
(lp618
I116
aI188
asI975
(lp619
I117
aI189
asI976
(lp620
I118
aI190
asI977
(lp621
I119
aI191
asI978
(lp622
I120
aI192
asI979
(lp623
I121
aI193
asI980
(lp624
I122
aI194
asI981
(lp625
I123
aI195
asI982
(lp626
I124
aI196
asI983
(lp627
I125
aI197
asI984
(lp628
I126
aI198
asI985
(lp629
I127
aI199
asI986
(lp630
I128
aI200
asI987
(lp631
I129
aI201
asI988
(lp632
I130
aI202
asI989
(lp633
I131
aI203
asI990
(lp634
I132
aI204
asI991
(lp635
I133
aI205
asI992
(lp636
I134
aI206
asI993
(lp637
I135
aI207
asI994
(lp638
I136
aI208
asI995
(lp639
I137
aI209
asI996
(lp640
I138
aI210
asI997
(lp641
I139
aI211
asI998
(lp642
I140
aI212
asI999
(lp643
I141
aI213
asI1000
(lp644
I142
aI214
asI1001
(lp645
I143
aI215
asI1002
(lp646
I216
aI288
asI1003
(lp647
I217
aI289
asI1004
(lp648
I218
aI290
asI1005
(lp649
I219
aI291
asI1006
(lp650
I220
aI292
asI1007
(lp651
I221
aI293
asI1008
(lp652
I222
aI294
asI1009
(lp653
I223
aI295
asI1010
(lp654
I224
aI296
asI1011
(lp655
I225
aI297
asI1012
(lp656
I226
aI298
asI1013
(lp657
I227
aI299
asI1014
(lp658
I228
aI300
asI1015
(lp659
I229
aI301
asI1016
(lp660
I230
aI302
asI1017
(lp661
I231
aI303
asI1018
(lp662
I232
aI304
asI1019
(lp663
I233
aI305
asI1020
(lp664
I234
aI306
asI1021
(lp665
I235
aI307
asI1022
(lp666
I236
aI308
asI1023
(lp667
I237
aI309
asI1024
(lp668
I238
aI310
asI1025
(lp669
I239
aI311
asI1026
(lp670
I240
aI312
asI1027
(lp671
I241
aI313
asI1028
(lp672
I242
aI314
asI1029
(lp673
I243
aI315
asI1030
(lp674
I244
aI316
asI1031
(lp675
I245
aI317
asI1032
(lp676
I246
aI318
asI1033
(lp677
I247
aI319
asI1034
(lp678
I248
aI320
asI1035
(lp679
I249
aI321
asI1036
(lp680
I250
aI322
asI1037
(lp681
I251
aI323
asI1038
(lp682
I252
aI324
asI1039
(lp683
I253
aI325
asI1040
(lp684
I254
aI326
asI1041
(lp685
I255
aI327
asI1042
(lp686
I256
aI328
asI1043
(lp687
I257
aI329
asI1044
(lp688
I258
aI330
asI1045
(lp689
I259
aI331
asI1046
(lp690
I260
aI332
asI1047
(lp691
I261
aI333
asI1048
(lp692
I262
aI334
asI1049
(lp693
I263
aI335
asI1050
(lp694
I264
aI336
asI1051
(lp695
I265
aI337
asI1052
(lp696
I266
aI338
asI1053
(lp697
I267
aI339
asI1054
(lp698
I268
aI340
asI1055
(lp699
I269
aI341
asI1056
(lp700
I270
aI342
asI1057
(lp701
I271
aI343
asI1058
(lp702
I272
aI344
asI1059
(lp703
I273
aI345
asI1060
(lp704
I274
aI346
asI1061
(lp705
I275
aI347
asI1062
(lp706
I276
aI348
asI1063
(lp707
I277
aI349
asI1064
(lp708
I278
aI350
asI1065
(lp709
I279
aI351
asI1066
(lp710
I280
aI352
asI1067
(lp711
I281
aI353
asI1068
(lp712
I282
aI354
asI1069
(lp713
I283
aI355
asI1070
(lp714
I284
aI356
asI1071
(lp715
I285
aI357
asI1072
(lp716
I286
aI358
asI1073
(lp717
I287
aI359
asI1074
(lp718
I216
aI288
asI1075
(lp719
I217
aI289
asI1076
(lp720
I218
aI290
asI1077
(lp721
I219
aI291
asI1078
(lp722
I220
aI292
asI1079
(lp723
I221
aI293
asI1080
(lp724
I222
aI294
asI1081
(lp725
I223
aI295
asI1082
(lp726
I224
aI296
asI1083
(lp727
I225
aI297
asI1084
(lp728
I226
aI298
asI1085
(lp729
I227
aI299
asI1086
(lp730
I228
aI300
asI1087
(lp731
I229
aI301
asI1088
(lp732
I230
aI302
asI1089
(lp733
I231
aI303
asI1090
(lp734
I232
aI304
asI1091
(lp735
I233
aI305
asI1092
(lp736
I234
aI306
asI1093
(lp737
I235
aI307
asI1094
(lp738
I236
aI308
asI1095
(lp739
I237
aI309
asI1096
(lp740
I238
aI310
asI1097
(lp741
I239
aI311
asI1098
(lp742
I240
aI312
asI1099
(lp743
I241
aI313
asI1100
(lp744
I242
aI314
asI1101
(lp745
I243
aI315
asI1102
(lp746
I244
aI316
asI1103
(lp747
I245
aI317
asI1104
(lp748
I246
aI318
asI1105
(lp749
I247
aI319
asI1106
(lp750
I248
aI320
asI1107
(lp751
I249
aI321
asI1108
(lp752
I250
aI322
asI1109
(lp753
I251
aI323
asI1110
(lp754
I252
aI324
asI1111
(lp755
I253
aI325
asI1112
(lp756
I254
aI326
asI1113
(lp757
I255
aI327
asI1114
(lp758
I256
aI328
asI1115
(lp759
I257
aI329
asI1116
(lp760
I258
aI330
asI1117
(lp761
I259
aI331
asI1118
(lp762
I260
aI332
asI1119
(lp763
I261
aI333
asI1120
(lp764
I262
aI334
asI1121
(lp765
I263
aI335
asI1122
(lp766
I264
aI336
asI1123
(lp767
I265
aI337
asI1124
(lp768
I266
aI338
asI1125
(lp769
I267
aI339
asI1126
(lp770
I268
aI340
asI1127
(lp771
I269
aI341
asI1128
(lp772
I270
aI342
asI1129
(lp773
I271
aI343
asI1130
(lp774
I272
aI344
asI1131
(lp775
I273
aI345
asI1132
(lp776
I274
aI346
asI1133
(lp777
I275
aI347
asI1134
(lp778
I276
aI348
asI1135
(lp779
I277
aI349
asI1136
(lp780
I278
aI350
asI1137
(lp781
I279
aI351
asI1138
(lp782
I280
aI352
asI1139
(lp783
I281
aI353
asI1140
(lp784
I282
aI354
asI1141
(lp785
I283
aI355
asI1142
(lp786
I284
aI356
asI1143
(lp787
I285
aI357
asI1144
(lp788
I286
aI358
asI1145
(lp789
I287
aI359
asI1146
(lp790
I108
aI240
asI1147
(lp791
I109
aI241
asI1148
(lp792
I110
aI242
asI1149
(lp793
I111
aI243
asI1150
(lp794
I112
aI244
asI1151
(lp795
I113
aI245
asI1152
(lp796
I114
aI246
asI1153
(lp797
I115
aI247
asI1154
(lp798
I116
aI248
asI1155
(lp799
I117
aI249
asI1156
(lp800
I118
aI250
asI1157
(lp801
I119
aI251
asI1158
(lp802
I120
aI216
asI1159
(lp803
I121
aI217
asI1160
(lp804
I122
aI218
asI1161
(lp805
I123
aI219
asI1162
(lp806
I124
aI220
asI1163
(lp807
I125
aI221
asI1164
(lp808
I126
aI222
asI1165
(lp809
I127
aI223
asI1166
(lp810
I128
aI224
asI1167
(lp811
I129
aI225
asI1168
(lp812
I130
aI226
asI1169
(lp813
I131
aI227
asI1170
(lp814
I132
aI228
asI1171
(lp815
I133
aI229
asI1172
(lp816
I134
aI230
asI1173
(lp817
I135
aI231
asI1174
(lp818
I136
aI232
asI1175
(lp819
I137
aI233
asI1176
(lp820
I138
aI234
asI1177
(lp821
I139
aI235
asI1178
(lp822
I140
aI236
asI1179
(lp823
I141
aI237
asI1180
(lp824
I142
aI238
asI1181
(lp825
I143
aI239
asI1182
(lp826
I72
aI264
asI1183
(lp827
I73
aI265
asI1184
(lp828
I74
aI266
asI1185
(lp829
I75
aI267
asI1186
(lp830
I76
aI268
asI1187
(lp831
I77
aI269
asI1188
(lp832
I78
aI270
asI1189
(lp833
I79
aI271
asI1190
(lp834
I80
aI272
asI1191
(lp835
I81
aI273
asI1192
(lp836
I82
aI274
asI1193
(lp837
I83
aI275
asI1194
(lp838
I84
aI276
asI1195
(lp839
I85
aI277
asI1196
(lp840
I86
aI278
asI1197
(lp841
I87
aI279
asI1198
(lp842
I88
aI280
asI1199
(lp843
I89
aI281
asI1200
(lp844
I90
aI282
asI1201
(lp845
I91
aI283
asI1202
(lp846
I92
aI284
asI1203
(lp847
I93
aI285
asI1204
(lp848
I94
aI286
asI1205
(lp849
I95
aI287
asI1206
(lp850
I96
aI252
asI1207
(lp851
I97
aI253
asI1208
(lp852
I98
aI254
asI1209
(lp853
I99
aI255
asI1210
(lp854
I100
aI256
asI1211
(lp855
I101
aI257
asI1212
(lp856
I102
aI258
asI1213
(lp857
I103
aI259
asI1214
(lp858
I104
aI260
asI1215
(lp859
I105
aI261
asI1216
(lp860
I106
aI262
asI1217
(lp861
I107
aI263
asI1218
(lp862
I184
aI288
asI1219
(lp863
I185
aI289
asI1220
(lp864
I186
aI290
asI1221
(lp865
I187
aI291
asI1222
(lp866
I188
aI292
asI1223
(lp867
I189
aI293
asI1224
(lp868
I190
aI294
asI1225
(lp869
I191
aI295
asI1226
(lp870
I196
aI300
asI1227
(lp871
I197
aI301
asI1228
(lp872
I198
aI302
asI1229
(lp873
I199
aI303
asI1230
(lp874
I200
aI304
asI1231
(lp875
I201
aI305
asI1232
(lp876
I202
aI306
asI1233
(lp877
I203
aI307
asI1234
(lp878
I208
aI312
asI1235
(lp879
I209
aI313
asI1236
(lp880
I210
aI314
asI1237
(lp881
I211
aI315
asI1238
(lp882
I212
aI316
asI1239
(lp883
I213
aI317
asI1240
(lp884
I214
aI318
asI1241
(lp885
I215
aI319
asI1242
(lp886
I144
aI328
asI1243
(lp887
I145
aI329
asI1244
(lp888
I146
aI330
asI1245
(lp889
I147
aI331
asI1246
(lp890
I148
aI332
asI1247
(lp891
I149
aI333
asI1248
(lp892
I150
aI334
asI1249
(lp893
I151
aI335
asI1250
(lp894
I156
aI340
asI1251
(lp895
I157
aI341
asI1252
(lp896
I158
aI342
asI1253
(lp897
I159
aI343
asI1254
(lp898
I160
aI344
asI1255
(lp899
I161
aI345
asI1256
(lp900
I162
aI346
asI1257
(lp901
I163
aI347
asI1258
(lp902
I168
aI352
asI1259
(lp903
I169
aI353
asI1260
(lp904
I170
aI354
asI1261
(lp905
I171
aI355
asI1262
(lp906
I172
aI356
asI1263
(lp907
I173
aI357
asI1264
(lp908
I174
aI358
asI1265
(lp909
I175
aI359
asI1266
(lp910
I152
aI264
asI1267
(lp911
I153
aI265
asI1268
(lp912
I154
aI266
asI1269
(lp913
I155
aI267
asI1270
(lp914
I144
aI268
asI1271
(lp915
I145
aI269
asI1272
(lp916
I146
aI270
asI1273
(lp917
I147
aI271
asI1274
(lp918
I148
aI272
asI1275
(lp919
I149
aI273
asI1276
(lp920
I150
aI274
asI1277
(lp921
I151
aI275
asI1278
(lp922
I164
aI276
asI1279
(lp923
I165
aI277
asI1280
(lp924
I166
aI278
asI1281
(lp925
I167
aI279
asI1282
(lp926
I156
aI280
asI1283
(lp927
I157
aI281
asI1284
(lp928
I158
aI282
asI1285
(lp929
I159
aI283
asI1286
(lp930
I160
aI284
asI1287
(lp931
I161
aI285
asI1288
(lp932
I162
aI286
asI1289
(lp933
I163
aI287
asI1290
(lp934
I196
aI216
asI1291
(lp935
I197
aI217
asI1292
(lp936
I198
aI218
asI1293
(lp937
I199
aI219
asI1294
(lp938
I200
aI220
asI1295
(lp939
I201
aI221
asI1296
(lp940
I202
aI222
asI1297
(lp941
I203
aI223
asI1298
(lp942
I192
aI224
asI1299
(lp943
I193
aI225
asI1300
(lp944
I194
aI226
asI1301
(lp945
I195
aI227
asI1302
(lp946
I208
aI228
asI1303
(lp947
I209
aI229
asI1304
(lp948
I210
aI230
asI1305
(lp949
I211
aI231
asI1306
(lp950
I212
aI232
asI1307
(lp951
I213
aI233
asI1308
(lp952
I214
aI234
asI1309
(lp953
I215
aI235
asI1310
(lp954
I204
aI236
asI1311
(lp955
I205
aI237
asI1312
(lp956
I206
aI238
asI1313
(lp957
I207
aI239
asI1314
(lp958
I72
aI324
asI1315
(lp959
I73
aI325
asI1316
(lp960
I74
aI326
asI1317
(lp961
I75
aI327
asI1318
(lp962
I76
aI328
asI1319
(lp963
I77
aI329
asI1320
(lp964
I78
aI330
asI1321
(lp965
I79
aI331
asI1322
(lp966
I80
aI332
asI1323
(lp967
I81
aI333
asI1324
(lp968
I82
aI334
asI1325
(lp969
I83
aI335
asI1326
(lp970
I84
aI336
asI1327
(lp971
I85
aI337
asI1328
(lp972
I86
aI338
asI1329
(lp973
I87
aI339
asI1330
(lp974
I88
aI340
asI1331
(lp975
I89
aI341
asI1332
(lp976
I90
aI342
asI1333
(lp977
I91
aI343
asI1334
(lp978
I92
aI344
asI1335
(lp979
I93
aI345
asI1336
(lp980
I94
aI346
asI1337
(lp981
I95
aI347
asI1338
(lp982
I96
aI348
asI1339
(lp983
I97
aI349
asI1340
(lp984
I98
aI350
asI1341
(lp985
I99
aI351
asI1342
(lp986
I100
aI352
asI1343
(lp987
I101
aI353
asI1344
(lp988
I102
aI354
asI1345
(lp989
I103
aI355
asI1346
(lp990
I104
aI356
asI1347
(lp991
I105
aI357
asI1348
(lp992
I106
aI358
asI1349
(lp993
I107
aI359
asI1350
(lp994
I108
aI288
asI1351
(lp995
I109
aI289
asI1352
(lp996
I110
aI290
asI1353
(lp997
I111
aI291
asI1354
(lp998
I112
aI292
asI1355
(lp999
I113
aI293
asI1356
(lp1000
I114
aI294
asI1357
(lp1001
I115
aI295
asI1358
(lp1002
I116
aI296
asI1359
(lp1003
I117
aI297
asI1360
(lp1004
I118
aI298
asI1361
(lp1005
I119
aI299
asI1362
(lp1006
I120
aI300
asI1363
(lp1007
I121
aI301
asI1364
(lp1008
I122
aI302
asI1365
(lp1009
I123
aI303
asI1366
(lp1010
I124
aI304
asI1367
(lp1011
I125
aI305
asI1368
(lp1012
I126
aI306
asI1369
(lp1013
I127
aI307
asI1370
(lp1014
I128
aI308
asI1371
(lp1015
I129
aI309
asI1372
(lp1016
I130
aI310
asI1373
(lp1017
I131
aI311
asI1374
(lp1018
I132
aI312
asI1375
(lp1019
I133
aI313
asI1376
(lp1020
I134
aI314
asI1377
(lp1021
I135
aI315
asI1378
(lp1022
I136
aI316
asI1379
(lp1023
I137
aI317
asI1380
(lp1024
I138
aI318
asI1381
(lp1025
I139
aI319
asI1382
(lp1026
I140
aI320
asI1383
(lp1027
I141
aI321
asI1384
(lp1028
I142
aI322
asI1385
(lp1029
I143
aI323
asI1386
(lp1030
I144
aI268
asI1387
(lp1031
I145
aI269
asI1388
(lp1032
I146
aI270
asI1389
(lp1033
I147
aI271
asI1390
(lp1034
I148
aI272
asI1391
(lp1035
I149
aI273
asI1392
(lp1036
I150
aI274
asI1393
(lp1037
I151
aI275
asI1394
(lp1038
I156
aI280
asI1395
(lp1039
I157
aI281
asI1396
(lp1040
I158
aI282
asI1397
(lp1041
I159
aI283
asI1398
(lp1042
I160
aI284
asI1399
(lp1043
I161
aI285
asI1400
(lp1044
I162
aI286
asI1401
(lp1045
I163
aI287
asI1402
(lp1046
I168
aI256
asI1403
(lp1047
I169
aI257
asI1404
(lp1048
I170
aI258
asI1405
(lp1049
I171
aI259
asI1406
(lp1050
I172
aI260
asI1407
(lp1051
I173
aI261
asI1408
(lp1052
I174
aI262
asI1409
(lp1053
I175
aI263
asI1410
(lp1054
I184
aI240
asI1411
(lp1055
I185
aI241
asI1412
(lp1056
I186
aI242
asI1413
(lp1057
I187
aI243
asI1414
(lp1058
I188
aI244
asI1415
(lp1059
I189
aI245
asI1416
(lp1060
I190
aI246
asI1417
(lp1061
I191
aI247
asI1418
(lp1062
I196
aI216
asI1419
(lp1063
I197
aI217
asI1420
(lp1064
I198
aI218
asI1421
(lp1065
I199
aI219
asI1422
(lp1066
I200
aI220
asI1423
(lp1067
I201
aI221
asI1424
(lp1068
I202
aI222
asI1425
(lp1069
I203
aI223
asI1426
(lp1070
I208
aI228
asI1427
(lp1071
I209
aI229
asI1428
(lp1072
I210
aI230
asI1429
(lp1073
I211
aI231
asI1430
(lp1074
I212
aI232
asI1431
(lp1075
I213
aI233
asI1432
(lp1076
I214
aI234
asI1433
(lp1077
I215
aI235
asI1434
(lp1078
I72
aI324
asI1435
(lp1079
I73
aI325
asI1436
(lp1080
I74
aI326
asI1437
(lp1081
I75
aI327
asI1438
(lp1082
I76
aI328
asI1439
(lp1083
I77
aI329
asI1440
(lp1084
I78
aI330
asI1441
(lp1085
I79
aI331
asI1442
(lp1086
I80
aI332
asI1443
(lp1087
I81
aI333
asI1444
(lp1088
I82
aI334
asI1445
(lp1089
I83
aI335
asI1446
(lp1090
I84
aI336
asI1447
(lp1091
I85
aI337
asI1448
(lp1092
I86
aI338
asI1449
(lp1093
I87
aI339
asI1450
(lp1094
I88
aI340
asI1451
(lp1095
I89
aI341
asI1452
(lp1096
I90
aI342
asI1453
(lp1097
I91
aI343
asI1454
(lp1098
I92
aI344
asI1455
(lp1099
I93
aI345
asI1456
(lp1100
I94
aI346
asI1457
(lp1101
I95
aI347
asI1458
(lp1102
I96
aI348
asI1459
(lp1103
I97
aI349
asI1460
(lp1104
I98
aI350
asI1461
(lp1105
I99
aI351
asI1462
(lp1106
I100
aI352
asI1463
(lp1107
I101
aI353
asI1464
(lp1108
I102
aI354
asI1465
(lp1109
I103
aI355
asI1466
(lp1110
I104
aI356
asI1467
(lp1111
I105
aI357
asI1468
(lp1112
I106
aI358
asI1469
(lp1113
I107
aI359
asI1470
(lp1114
I108
aI288
asI1471
(lp1115
I109
aI289
asI1472
(lp1116
I110
aI290
asI1473
(lp1117
I111
aI291
asI1474
(lp1118
I112
aI292
asI1475
(lp1119
I113
aI293
asI1476
(lp1120
I114
aI294
asI1477
(lp1121
I115
aI295
asI1478
(lp1122
I116
aI296
asI1479
(lp1123
I117
aI297
asI1480
(lp1124
I118
aI298
asI1481
(lp1125
I119
aI299
asI1482
(lp1126
I120
aI300
asI1483
(lp1127
I121
aI301
asI1484
(lp1128
I122
aI302
asI1485
(lp1129
I123
aI303
asI1486
(lp1130
I124
aI304
asI1487
(lp1131
I125
aI305
asI1488
(lp1132
I126
aI306
asI1489
(lp1133
I127
aI307
asI1490
(lp1134
I128
aI308
asI1491
(lp1135
I129
aI309
asI1492
(lp1136
I130
aI310
asI1493
(lp1137
I131
aI311
asI1494
(lp1138
I132
aI312
asI1495
(lp1139
I133
aI313
asI1496
(lp1140
I134
aI314
asI1497
(lp1141
I135
aI315
asI1498
(lp1142
I136
aI316
asI1499
(lp1143
I137
aI317
asI1500
(lp1144
I138
aI318
asI1501
(lp1145
I139
aI319
asI1502
(lp1146
I140
aI320
asI1503
(lp1147
I141
aI321
asI1504
(lp1148
I142
aI322
asI1505
(lp1149
I143
aI323
asI1506
(lp1150
I120
aI216
asI1507
(lp1151
I121
aI217
asI1508
(lp1152
I122
aI218
asI1509
(lp1153
I123
aI219
asI1510
(lp1154
I124
aI220
asI1511
(lp1155
I125
aI221
asI1512
(lp1156
I126
aI222
asI1513
(lp1157
I127
aI223
asI1514
(lp1158
I128
aI224
asI1515
(lp1159
I129
aI225
asI1516
(lp1160
I130
aI226
asI1517
(lp1161
I131
aI227
asI1518
(lp1162
I132
aI228
asI1519
(lp1163
I133
aI229
asI1520
(lp1164
I134
aI230
asI1521
(lp1165
I135
aI231
asI1522
(lp1166
I136
aI232
asI1523
(lp1167
I137
aI233
asI1524
(lp1168
I138
aI234
asI1525
(lp1169
I139
aI235
asI1526
(lp1170
I140
aI236
asI1527
(lp1171
I141
aI237
asI1528
(lp1172
I142
aI238
asI1529
(lp1173
I143
aI239
asI1530
(lp1174
I72
aI264
asI1531
(lp1175
I73
aI265
asI1532
(lp1176
I74
aI266
asI1533
(lp1177
I75
aI267
asI1534
(lp1178
I76
aI268
asI1535
(lp1179
I77
aI269
asI1536
(lp1180
I78
aI270
asI1537
(lp1181
I79
aI271
asI1538
(lp1182
I80
aI272
asI1539
(lp1183
I81
aI273
asI1540
(lp1184
I82
aI274
asI1541
(lp1185
I83
aI275
asI1542
(lp1186
I84
aI276
asI1543
(lp1187
I85
aI277
asI1544
(lp1188
I86
aI278
asI1545
(lp1189
I87
aI279
asI1546
(lp1190
I88
aI280
asI1547
(lp1191
I89
aI281
asI1548
(lp1192
I90
aI282
asI1549
(lp1193
I91
aI283
asI1550
(lp1194
I92
aI284
asI1551
(lp1195
I93
aI285
asI1552
(lp1196
I94
aI286
asI1553
(lp1197
I95
aI287
asI1554
(lp1198
I184
aI288
asI1555
(lp1199
I185
aI289
asI1556
(lp1200
I186
aI290
asI1557
(lp1201
I187
aI291
asI1558
(lp1202
I188
aI292
asI1559
(lp1203
I189
aI293
asI1560
(lp1204
I190
aI294
asI1561
(lp1205
I191
aI295
asI1562
(lp1206
I180
aI296
asI1563
(lp1207
I181
aI297
asI1564
(lp1208
I182
aI298
asI1565
(lp1209
I183
aI299
asI1566
(lp1210
I196
aI300
asI1567
(lp1211
I197
aI301
asI1568
(lp1212
I198
aI302
asI1569
(lp1213
I199
aI303
asI1570
(lp1214
I200
aI304
asI1571
(lp1215
I201
aI305
asI1572
(lp1216
I202
aI306
asI1573
(lp1217
I203
aI307
asI1574
(lp1218
I192
aI308
asI1575
(lp1219
I193
aI309
asI1576
(lp1220
I194
aI310
asI1577
(lp1221
I195
aI311
asI1578
(lp1222
I208
aI312
asI1579
(lp1223
I209
aI313
asI1580
(lp1224
I210
aI314
asI1581
(lp1225
I211
aI315
asI1582
(lp1226
I212
aI316
asI1583
(lp1227
I213
aI317
asI1584
(lp1228
I214
aI318
asI1585
(lp1229
I215
aI319
asI1586
(lp1230
I204
aI320
asI1587
(lp1231
I205
aI321
asI1588
(lp1232
I206
aI322
asI1589
(lp1233
I207
aI323
asI1590
(lp1234
I152
aI324
asI1591
(lp1235
I153
aI325
asI1592
(lp1236
I154
aI326
asI1593
(lp1237
I155
aI327
asI1594
(lp1238
I144
aI328
asI1595
(lp1239
I145
aI329
asI1596
(lp1240
I146
aI330
asI1597
(lp1241
I147
aI331
asI1598
(lp1242
I148
aI332
asI1599
(lp1243
I149
aI333
asI1600
(lp1244
I150
aI334
asI1601
(lp1245
I151
aI335
asI1602
(lp1246
I164
aI336
asI1603
(lp1247
I165
aI337
asI1604
(lp1248
I166
aI338
asI1605
(lp1249
I167
aI339
asI1606
(lp1250
I156
aI340
asI1607
(lp1251
I157
aI341
asI1608
(lp1252
I158
aI342
asI1609
(lp1253
I159
aI343
asI1610
(lp1254
I160
aI344
asI1611
(lp1255
I161
aI345
asI1612
(lp1256
I162
aI346
asI1613
(lp1257
I163
aI347
asI1614
(lp1258
I176
aI348
asI1615
(lp1259
I177
aI349
asI1616
(lp1260
I178
aI350
asI1617
(lp1261
I179
aI351
asI1618
(lp1262
I168
aI352
asI1619
(lp1263
I169
aI353
asI1620
(lp1264
I170
aI354
asI1621
(lp1265
I171
aI355
asI1622
(lp1266
I172
aI356
asI1623
(lp1267
I173
aI357
asI1624
(lp1268
I174
aI358
asI1625
(lp1269
I175
aI359
asI1626
(lp1270
I72
asI1627
(lp1271
I76
asI1628
(lp1272
I80
asI1629
(lp1273
I84
asI1630
(lp1274
I88
asI1631
(lp1275
I92
asI1632
(lp1276
I96
asI1633
(lp1277
I100
asI1634
(lp1278
I104
asI1635
(lp1279
I111
asI1636
(lp1280
I115
asI1637
(lp1281
I119
asI1638
(lp1282
I123
asI1639
(lp1283
I127
asI1640
(lp1284
I131
asI1641
(lp1285
I135
asI1642
(lp1286
I139
asI1643
(lp1287
I143
asI1644
(lp1288
I144
asI1645
(lp1289
I148
asI1646
(lp1290
I152
aI324
asI1647
(lp1291
I152
asI1648
(lp1292
I152
aI264
asI1649
(lp1293
I153
aI325
asI1650
(lp1294
I0
aI153
asI1651
(lp1295
I153
aI265
asI1652
(lp1296
I154
aI326
asI1653
(lp1297
I1
aI154
asI1654
(lp1298
I154
aI266
asI1655
(lp1299
I155
aI327
asI1656
(lp1300
I2
aI155
asI1657
(lp1301
I155
aI267
asI1658
(lp1302
I156
asI1659
(lp1303
I160
asI1660
(lp1304
I164
aI336
asI1661
(lp1305
I164
asI1662
(lp1306
I164
aI276
asI1663
(lp1307
I165
aI337
asI1664
(lp1308
I12
aI165
asI1665
(lp1309
I165
aI277
asI1666
(lp1310
I166
aI338
asI1667
(lp1311
I13
aI166
asI1668
(lp1312
I166
aI278
asI1669
(lp1313
I167
aI339
asI1670
(lp1314
I14
aI167
asI1671
(lp1315
I167
aI279
asI1672
(lp1316
I168
asI1673
(lp1317
I172
asI1674
(lp1318
I176
aI348
asI1675
(lp1319
I176
asI1676
(lp1320
I176
aI252
asI1677
(lp1321
I177
aI349
asI1678
(lp1322
I24
aI177
asI1679
(lp1323
I177
aI253
asI1680
(lp1324
I178
aI350
asI1681
(lp1325
I25
aI178
asI1682
(lp1326
I178
aI254
asI1683
(lp1327
I179
aI351
asI1684
(lp1328
I26
aI179
asI1685
(lp1329
I179
aI255
asI1686
(lp1330
I180
aI248
asI1687
(lp1331
I45
aI180
asI1688
(lp1332
I180
aI296
asI1689
(lp1333
I181
aI249
asI1690
(lp1334
I46
aI181
asI1691
(lp1335
I181
aI297
asI1692
(lp1336
I182
aI250
asI1693
(lp1337
I47
aI182
asI1694
(lp1338
I182
aI298
asI1695
(lp1339
I183
aI251
asI1696
(lp1340
I183
asI1697
(lp1341
I183
aI299
asI1698
(lp1342
I187
asI1699
(lp1343
I191
asI1700
(lp1344
I192
aI224
asI1701
(lp1345
I57
aI192
asI1702
(lp1346
I192
aI308
asI1703
(lp1347
I193
aI225
asI1704
(lp1348
I58
aI193
asI1705
(lp1349
I193
aI309
asI1706
(lp1350
I194
aI226
asI1707
(lp1351
I59
aI194
asI1708
(lp1352
I194
aI310
asI1709
(lp1353
I195
aI227
asI1710
(lp1354
I195
asI1711
(lp1355
I195
aI311
asI1712
(lp1356
I199
asI1713
(lp1357
I203
asI1714
(lp1358
I204
aI236
asI1715
(lp1359
I69
aI204
asI1716
(lp1360
I204
aI320
asI1717
(lp1361
I205
aI237
asI1718
(lp1362
I70
aI205
asI1719
(lp1363
I205
aI321
asI1720
(lp1364
I206
aI238
asI1721
(lp1365
I71
aI206
asI1722
(lp1366
I206
aI322
asI1723
(lp1367
I207
aI239
asI1724
(lp1368
I207
asI1725
(lp1369
I207
aI323
asI1726
(lp1370
I211
asI1727
(lp1371
I215
asI1728
(lp1372
I108
aI240
asI1729
(lp1373
I36
aI240
asI1730
(lp1374
I184
aI240
asI1731
(lp1375
I109
aI241
asI1732
(lp1376
I37
aI241
asI1733
(lp1377
I185
aI241
asI1734
(lp1378
I110
aI242
asI1735
(lp1379
I38
aI242
asI1736
(lp1380
I186
aI242
asI1737
(lp1381
I111
aI243
asI1738
(lp1382
I39
aI243
asI1739
(lp1383
I187
aI243
asI1740
(lp1384
I112
aI244
asI1741
(lp1385
I40
aI244
asI1742
(lp1386
I188
aI244
asI1743
(lp1387
I113
aI245
asI1744
(lp1388
I41
aI245
asI1745
(lp1389
I189
aI245
asI1746
(lp1390
I114
aI246
asI1747
(lp1391
I42
aI246
asI1748
(lp1392
I190
aI246
asI1749
(lp1393
I115
aI247
asI1750
(lp1394
I43
aI247
asI1751
(lp1395
I191
aI247
asI1752
(lp1396
I116
aI248
asI1753
(lp1397
I44
aI248
asI1754
(lp1398
I180
aI248
asI1755
(lp1399
I117
aI249
asI1756
(lp1400
I45
aI249
asI1757
(lp1401
I181
aI249
asI1758
(lp1402
I118
aI250
asI1759
(lp1403
I46
aI250
asI1760
(lp1404
I182
aI250
asI1761
(lp1405
I119
aI251
asI1762
(lp1406
I47
aI251
asI1763
(lp1407
I183
aI251
asI1764
(lp1408
I176
aI252
asI1765
(lp1409
I24
aI252
asI1766
(lp1410
I96
aI252
asI1767
(lp1411
I177
aI253
asI1768
(lp1412
I25
aI253
asI1769
(lp1413
I97
aI253
asI1770
(lp1414
I178
aI254
asI1771
(lp1415
I26
aI254
asI1772
(lp1416
I98
aI254
asI1773
(lp1417
I179
aI255
asI1774
(lp1418
I27
aI255
asI1775
(lp1419
I99
aI255
asI1776
(lp1420
I168
aI256
asI1777
(lp1421
I28
aI256
asI1778
(lp1422
I100
aI256
asI1779
(lp1423
I169
aI257
asI1780
(lp1424
I29
aI257
asI1781
(lp1425
I101
aI257
asI1782
(lp1426
I170
aI258
asI1783
(lp1427
I30
aI258
asI1784
(lp1428
I102
aI258
asI1785
(lp1429
I171
aI259
asI1786
(lp1430
I31
aI259
asI1787
(lp1431
I103
aI259
asI1788
(lp1432
I172
aI260
asI1789
(lp1433
I32
aI260
asI1790
(lp1434
I104
aI260
asI1791
(lp1435
I173
aI261
asI1792
(lp1436
I33
aI261
asI1793
(lp1437
I105
aI261
asI1794
(lp1438
I174
aI262
asI1795
(lp1439
I34
aI262
asI1796
(lp1440
I106
aI262
asI1797
(lp1441
I175
aI263
asI1798
(lp1442
I35
aI263
asI1799
(lp1443
I107
aI263
as.